

Microchip MPLAB XC8 Assembler V3.00 build 20241204225717 
                                                                                               Fri Jun 27 17:39:15 2025

Microchip MPLAB XC8 C Compiler v3.00 (Free license) build 20241204225717 Og1 
     1                           	processor	16F877A
     2                           	pagewidth 120
     3                           	opt	flic
     4                           	psect	idataCOMMON,global,class=CODE,space=0,delta=2,noexec
     5                           	psect	idataBANK0,global,class=CODE,space=0,delta=2,noexec
     6                           	psect	idataBANK1,global,class=CODE,space=0,delta=2,noexec
     7                           	psect	strings,global,class=STRING,space=0,delta=2,noexec
     8                           	psect	stringtext,global,reloc=256,class=STRCODE,space=0,delta=2,noexec
     9                           	psect	cinit,global,class=CODE,space=0,merge=1,delta=2
    10                           	psect	bssCOMMON,global,class=COMMON,space=1,delta=1,noexec
    11                           	psect	dataCOMMON,global,class=COMMON,space=1,delta=1,noexec
    12                           	psect	bssBANK0,global,class=BANK0,space=1,delta=1,noexec
    13                           	psect	dataBANK0,global,class=BANK0,space=1,delta=1,noexec
    14                           	psect	bssBANK1,global,class=BANK1,space=1,delta=1,noexec
    15                           	psect	dataBANK1,global,class=BANK1,space=1,delta=1,noexec
    16                           	psect	inittext,global,class=CODE,space=0,delta=2
    17                           	psect	cstackBANK1,global,class=BANK1,space=1,delta=1,noexec
    18                           	psect	cstackCOMMON,global,class=COMMON,space=1,delta=1,noexec
    19                           	psect	cstackBANK0,global,class=BANK0,space=1,delta=1,noexec
    20                           	psect	maintext,global,class=CODE,space=0,split=1,delta=2
    21                           	psect	text1,local,class=CODE,space=0,merge=1,delta=2
    22                           	psect	text2,local,class=CODE,space=0,merge=1,delta=2
    23                           	psect	text3,local,class=CODE,space=0,merge=1,delta=2
    24                           	psect	text4,local,class=CODE,space=0,merge=1,delta=2
    25                           	psect	text5,local,class=CODE,space=0,merge=1,delta=2
    26                           	psect	text6,local,class=CODE,space=0,merge=1,delta=2
    27                           	psect	text7,local,class=CODE,space=0,merge=1,delta=2,group=1
    28                           	psect	text8,local,class=CODE,space=0,merge=1,delta=2,group=1
    29                           	psect	text9,local,class=CODE,space=0,merge=1,delta=2,group=1
    30                           	psect	text10,local,class=CODE,space=0,merge=1,delta=2,group=1
    31                           	psect	text11,local,class=CODE,space=0,merge=1,delta=2,group=1
    32                           	psect	text12,local,class=CODE,space=0,merge=1,delta=2,group=1
    33                           	psect	text13,local,class=CODE,space=0,merge=1,delta=2,group=1
    34                           	psect	text14,local,class=CODE,space=0,merge=1,delta=2,group=1
    35                           	psect	text15,local,class=CODE,space=0,merge=1,delta=2,group=1
    36                           	psect	text16,local,class=CODE,space=0,merge=1,delta=2,group=1
    37                           	psect	text17,local,class=CODE,space=0,merge=1,delta=2
    38                           	psect	text18,local,class=CODE,space=0,merge=1,delta=2
    39                           	psect	text19,local,class=CODE,space=0,merge=1,delta=2
    40                           	psect	text20,local,class=CODE,space=0,merge=1,delta=2
    41                           	psect	text21,local,class=CODE,space=0,merge=1,delta=2
    42                           	psect	text22,local,class=CODE,space=0,merge=1,delta=2
    43                           	psect	text23,local,class=CODE,space=0,merge=1,delta=2
    44                           	psect	text24,local,class=CODE,space=0,merge=1,delta=2
    45                           	psect	text25,local,class=CODE,space=0,merge=1,delta=2
    46                           	psect	text26,local,class=CODE,space=0,merge=1,delta=2
    47                           	psect	text27,local,class=CODE,space=0,merge=1,delta=2
    48                           	psect	intentry,global,class=CODE,space=0,delta=2
    49                           	psect	config,global,abs,ovrld,class=CONFIG,space=4,delta=2,noexec
    50                           	dabs	1,0x7E,2
    51     0000                     
    52                           ; Generated 12/10/2023 GMT
    53                           ; 
    54                           ; Copyright © 2023, Microchip Technology Inc. and its subsidiaries ("Microchip")
    55                           ; All rights reserved.
    56                           ; 
    57                           ; This software is developed by Microchip Technology Inc. and its subsidiaries ("Microch
      +                          ip").
    58                           ; 
    59                           ; Redistribution and use in source and binary forms, with or without modification, are
    60                           ; permitted provided that the following conditions are met:
    61                           ; 
    62                           ;     1. Redistributions of source code must retain the above copyright notice, this lis
      +                          t of
    63                           ;        conditions and the following disclaimer.
    64                           ; 
    65                           ;     2. Redistributions in binary form must reproduce the above copyright notice, this 
      +                          list
    66                           ;        of conditions and the following disclaimer in the documentation and/or other
    67                           ;        materials provided with the distribution. Publication is not required when
    68                           ;        this file is used in an embedded application.
    69                           ; 
    70                           ;     3. Microchip's name may not be used to endorse or promote products derived from th
      +                          is
    71                           ;        software without specific prior written permission.
    72                           ; 
    73                           ; THIS SOFTWARE IS PROVIDED BY MICROCHIP "AS IS" AND ANY EXPRESS OR IMPLIED WARRANTIES,
    74                           ; INCLUDING, BUT NOT LIMITED TO, THE IMPLIED WARRANTIES OF MERCHANTABILITY AND FITNESS F
      +                          OR
    75                           ; PURPOSE ARE DISCLAIMED.  IN NO EVENT SHALL MICROCHIP BE LIABLE FOR ANY DIRECT, INDIREC
      +                          T,
    76                           ; INCIDENTAL, SPECIAL, EXEMPLARY, OR CONSEQUENTIAL DAMAGES (INCLUDING BUT NOT LIMITED TO
    77                           ; PROCUREMENT OF SUBSTITUTE GOODS OR SERVICES; LOSS OF USE, DATA OR PROFITS; OR BUSINESS
    78                           ; INTERRUPTION) HOWSOEVER CAUSED AND ON ANY THEORY OF LIABILITY, WHETHER IN CONTRACT, ST
      +                          RICT
    79                           ; LIABILITY, OR TORT (INCLUDING NEGLIGENCE OR OTHERWISE) ARISING IN ANY WAY OUT OF THE U
      +                          SE OF
    80                           ; THIS SOFTWARE, EVEN IF ADVISED OF THE POSSIBILITY OF SUCH DAMAGE.
    81                           ; 
    82                           ; 
    83                           ; Code-generator required, PIC16F877A Definitions
    84                           ; 
    85                           ; SFR Addresses
    86     0004                     fsr             equ	4
    87     0004                     fsr0            equ	4
    88     0000                     indf            equ	0
    89     0000                     indf0           equ	0
    90     0002                     pc              equ	2
    91     0002                     pcl             equ	2
    92     000A                     pclath          equ	10
    93     0003                     status          equ	3
    94     0000                     INDF            equ	0	;# 
    95     0001                     TMR0            equ	1	;# 
    96     0002                     PCL             equ	2	;# 
    97     0003                     STATUS          equ	3	;# 
    98     0004                     FSR             equ	4	;# 
    99     0005                     PORTA           equ	5	;# 
   100     0006                     PORTB           equ	6	;# 
   101     0007                     PORTC           equ	7	;# 
   102     0008                     PORTD           equ	8	;# 
   103     0009                     PORTE           equ	9	;# 
   104     000A                     PCLATH          equ	10	;# 
   105     000B                     INTCON          equ	11	;# 
   106     000C                     PIR1            equ	12	;# 
   107     000D                     PIR2            equ	13	;# 
   108     000E                     TMR1            equ	14	;# 
   109     000E                     TMR1L           equ	14	;# 
   110     000F                     TMR1H           equ	15	;# 
   111     0010                     T1CON           equ	16	;# 
   112     0011                     TMR2            equ	17	;# 
   113     0012                     T2CON           equ	18	;# 
   114     0013                     SSPBUF          equ	19	;# 
   115     0014                     SSPCON          equ	20	;# 
   116     0015                     CCPR1           equ	21	;# 
   117     0015                     CCPR1L          equ	21	;# 
   118     0016                     CCPR1H          equ	22	;# 
   119     0017                     CCP1CON         equ	23	;# 
   120     0018                     RCSTA           equ	24	;# 
   121     0019                     TXREG           equ	25	;# 
   122     001A                     RCREG           equ	26	;# 
   123     001B                     CCPR2           equ	27	;# 
   124     001B                     CCPR2L          equ	27	;# 
   125     001C                     CCPR2H          equ	28	;# 
   126     001D                     CCP2CON         equ	29	;# 
   127     001E                     ADRESH          equ	30	;# 
   128     001F                     ADCON0          equ	31	;# 
   129     0081                     OPTION_REG      equ	129	;# 
   130     0085                     TRISA           equ	133	;# 
   131     0086                     TRISB           equ	134	;# 
   132     0087                     TRISC           equ	135	;# 
   133     0088                     TRISD           equ	136	;# 
   134     0089                     TRISE           equ	137	;# 
   135     008C                     PIE1            equ	140	;# 
   136     008D                     PIE2            equ	141	;# 
   137     008E                     PCON            equ	142	;# 
   138     0091                     SSPCON2         equ	145	;# 
   139     0092                     PR2             equ	146	;# 
   140     0093                     SSPADD          equ	147	;# 
   141     0094                     SSPSTAT         equ	148	;# 
   142     0098                     TXSTA           equ	152	;# 
   143     0099                     SPBRG           equ	153	;# 
   144     009C                     CMCON           equ	156	;# 
   145     009D                     CVRCON          equ	157	;# 
   146     009E                     ADRESL          equ	158	;# 
   147     009F                     ADCON1          equ	159	;# 
   148     010C                     EEDATA          equ	268	;# 
   149     010D                     EEADR           equ	269	;# 
   150     010E                     EEDATH          equ	270	;# 
   151     010F                     EEADRH          equ	271	;# 
   152     018C                     EECON1          equ	396	;# 
   153     018D                     EECON2          equ	397	;# 
   154     0000                     INDF            equ	0	;# 
   155     0001                     TMR0            equ	1	;# 
   156     0002                     PCL             equ	2	;# 
   157     0003                     STATUS          equ	3	;# 
   158     0004                     FSR             equ	4	;# 
   159     0005                     PORTA           equ	5	;# 
   160     0006                     PORTB           equ	6	;# 
   161     0007                     PORTC           equ	7	;# 
   162     0008                     PORTD           equ	8	;# 
   163     0009                     PORTE           equ	9	;# 
   164     000A                     PCLATH          equ	10	;# 
   165     000B                     INTCON          equ	11	;# 
   166     000C                     PIR1            equ	12	;# 
   167     000D                     PIR2            equ	13	;# 
   168     000E                     TMR1            equ	14	;# 
   169     000E                     TMR1L           equ	14	;# 
   170     000F                     TMR1H           equ	15	;# 
   171     0010                     T1CON           equ	16	;# 
   172     0011                     TMR2            equ	17	;# 
   173     0012                     T2CON           equ	18	;# 
   174     0013                     SSPBUF          equ	19	;# 
   175     0014                     SSPCON          equ	20	;# 
   176     0015                     CCPR1           equ	21	;# 
   177     0015                     CCPR1L          equ	21	;# 
   178     0016                     CCPR1H          equ	22	;# 
   179     0017                     CCP1CON         equ	23	;# 
   180     0018                     RCSTA           equ	24	;# 
   181     0019                     TXREG           equ	25	;# 
   182     001A                     RCREG           equ	26	;# 
   183     001B                     CCPR2           equ	27	;# 
   184     001B                     CCPR2L          equ	27	;# 
   185     001C                     CCPR2H          equ	28	;# 
   186     001D                     CCP2CON         equ	29	;# 
   187     001E                     ADRESH          equ	30	;# 
   188     001F                     ADCON0          equ	31	;# 
   189     0081                     OPTION_REG      equ	129	;# 
   190     0085                     TRISA           equ	133	;# 
   191     0086                     TRISB           equ	134	;# 
   192     0087                     TRISC           equ	135	;# 
   193     0088                     TRISD           equ	136	;# 
   194     0089                     TRISE           equ	137	;# 
   195     008C                     PIE1            equ	140	;# 
   196     008D                     PIE2            equ	141	;# 
   197     008E                     PCON            equ	142	;# 
   198     0091                     SSPCON2         equ	145	;# 
   199     0092                     PR2             equ	146	;# 
   200     0093                     SSPADD          equ	147	;# 
   201     0094                     SSPSTAT         equ	148	;# 
   202     0098                     TXSTA           equ	152	;# 
   203     0099                     SPBRG           equ	153	;# 
   204     009C                     CMCON           equ	156	;# 
   205     009D                     CVRCON          equ	157	;# 
   206     009E                     ADRESL          equ	158	;# 
   207     009F                     ADCON1          equ	159	;# 
   208     010C                     EEDATA          equ	268	;# 
   209     010D                     EEADR           equ	269	;# 
   210     010E                     EEDATH          equ	270	;# 
   211     010F                     EEADRH          equ	271	;# 
   212     018C                     EECON1          equ	396	;# 
   213     018D                     EECON2          equ	397	;# 
   214     0000                     INDF            equ	0	;# 
   215     0001                     TMR0            equ	1	;# 
   216     0002                     PCL             equ	2	;# 
   217     0003                     STATUS          equ	3	;# 
   218     0004                     FSR             equ	4	;# 
   219     0005                     PORTA           equ	5	;# 
   220     0006                     PORTB           equ	6	;# 
   221     0007                     PORTC           equ	7	;# 
   222     0008                     PORTD           equ	8	;# 
   223     0009                     PORTE           equ	9	;# 
   224     000A                     PCLATH          equ	10	;# 
   225     000B                     INTCON          equ	11	;# 
   226     000C                     PIR1            equ	12	;# 
   227     000D                     PIR2            equ	13	;# 
   228     000E                     TMR1            equ	14	;# 
   229     000E                     TMR1L           equ	14	;# 
   230     000F                     TMR1H           equ	15	;# 
   231     0010                     T1CON           equ	16	;# 
   232     0011                     TMR2            equ	17	;# 
   233     0012                     T2CON           equ	18	;# 
   234     0013                     SSPBUF          equ	19	;# 
   235     0014                     SSPCON          equ	20	;# 
   236     0015                     CCPR1           equ	21	;# 
   237     0015                     CCPR1L          equ	21	;# 
   238     0016                     CCPR1H          equ	22	;# 
   239     0017                     CCP1CON         equ	23	;# 
   240     0018                     RCSTA           equ	24	;# 
   241     0019                     TXREG           equ	25	;# 
   242     001A                     RCREG           equ	26	;# 
   243     001B                     CCPR2           equ	27	;# 
   244     001B                     CCPR2L          equ	27	;# 
   245     001C                     CCPR2H          equ	28	;# 
   246     001D                     CCP2CON         equ	29	;# 
   247     001E                     ADRESH          equ	30	;# 
   248     001F                     ADCON0          equ	31	;# 
   249     0081                     OPTION_REG      equ	129	;# 
   250     0085                     TRISA           equ	133	;# 
   251     0086                     TRISB           equ	134	;# 
   252     0087                     TRISC           equ	135	;# 
   253     0088                     TRISD           equ	136	;# 
   254     0089                     TRISE           equ	137	;# 
   255     008C                     PIE1            equ	140	;# 
   256     008D                     PIE2            equ	141	;# 
   257     008E                     PCON            equ	142	;# 
   258     0091                     SSPCON2         equ	145	;# 
   259     0092                     PR2             equ	146	;# 
   260     0093                     SSPADD          equ	147	;# 
   261     0094                     SSPSTAT         equ	148	;# 
   262     0098                     TXSTA           equ	152	;# 
   263     0099                     SPBRG           equ	153	;# 
   264     009C                     CMCON           equ	156	;# 
   265     009D                     CVRCON          equ	157	;# 
   266     009E                     ADRESL          equ	158	;# 
   267     009F                     ADCON1          equ	159	;# 
   268     010C                     EEDATA          equ	268	;# 
   269     010D                     EEADR           equ	269	;# 
   270     010E                     EEDATH          equ	270	;# 
   271     010F                     EEADRH          equ	271	;# 
   272     018C                     EECON1          equ	396	;# 
   273     018D                     EECON2          equ	397	;# 
   274     0000                     INDF            equ	0	;# 
   275     0001                     TMR0            equ	1	;# 
   276     0002                     PCL             equ	2	;# 
   277     0003                     STATUS          equ	3	;# 
   278     0004                     FSR             equ	4	;# 
   279     0005                     PORTA           equ	5	;# 
   280     0006                     PORTB           equ	6	;# 
   281     0007                     PORTC           equ	7	;# 
   282     0008                     PORTD           equ	8	;# 
   283     0009                     PORTE           equ	9	;# 
   284     000A                     PCLATH          equ	10	;# 
   285     000B                     INTCON          equ	11	;# 
   286     000C                     PIR1            equ	12	;# 
   287     000D                     PIR2            equ	13	;# 
   288     000E                     TMR1            equ	14	;# 
   289     000E                     TMR1L           equ	14	;# 
   290     000F                     TMR1H           equ	15	;# 
   291     0010                     T1CON           equ	16	;# 
   292     0011                     TMR2            equ	17	;# 
   293     0012                     T2CON           equ	18	;# 
   294     0013                     SSPBUF          equ	19	;# 
   295     0014                     SSPCON          equ	20	;# 
   296     0015                     CCPR1           equ	21	;# 
   297     0015                     CCPR1L          equ	21	;# 
   298     0016                     CCPR1H          equ	22	;# 
   299     0017                     CCP1CON         equ	23	;# 
   300     0018                     RCSTA           equ	24	;# 
   301     0019                     TXREG           equ	25	;# 
   302     001A                     RCREG           equ	26	;# 
   303     001B                     CCPR2           equ	27	;# 
   304     001B                     CCPR2L          equ	27	;# 
   305     001C                     CCPR2H          equ	28	;# 
   306     001D                     CCP2CON         equ	29	;# 
   307     001E                     ADRESH          equ	30	;# 
   308     001F                     ADCON0          equ	31	;# 
   309     0081                     OPTION_REG      equ	129	;# 
   310     0085                     TRISA           equ	133	;# 
   311     0086                     TRISB           equ	134	;# 
   312     0087                     TRISC           equ	135	;# 
   313     0088                     TRISD           equ	136	;# 
   314     0089                     TRISE           equ	137	;# 
   315     008C                     PIE1            equ	140	;# 
   316     008D                     PIE2            equ	141	;# 
   317     008E                     PCON            equ	142	;# 
   318     0091                     SSPCON2         equ	145	;# 
   319     0092                     PR2             equ	146	;# 
   320     0093                     SSPADD          equ	147	;# 
   321     0094                     SSPSTAT         equ	148	;# 
   322     0098                     TXSTA           equ	152	;# 
   323     0099                     SPBRG           equ	153	;# 
   324     009C                     CMCON           equ	156	;# 
   325     009D                     CVRCON          equ	157	;# 
   326     009E                     ADRESL          equ	158	;# 
   327     009F                     ADCON1          equ	159	;# 
   328     010C                     EEDATA          equ	268	;# 
   329     010D                     EEADR           equ	269	;# 
   330     010E                     EEDATH          equ	270	;# 
   331     010F                     EEADRH          equ	271	;# 
   332     018C                     EECON1          equ	396	;# 
   333     018D                     EECON2          equ	397	;# 
   334     0000                     INDF            equ	0	;# 
   335     0001                     TMR0            equ	1	;# 
   336     0002                     PCL             equ	2	;# 
   337     0003                     STATUS          equ	3	;# 
   338     0004                     FSR             equ	4	;# 
   339     0005                     PORTA           equ	5	;# 
   340     0006                     PORTB           equ	6	;# 
   341     0007                     PORTC           equ	7	;# 
   342     0008                     PORTD           equ	8	;# 
   343     0009                     PORTE           equ	9	;# 
   344     000A                     PCLATH          equ	10	;# 
   345     000B                     INTCON          equ	11	;# 
   346     000C                     PIR1            equ	12	;# 
   347     000D                     PIR2            equ	13	;# 
   348     000E                     TMR1            equ	14	;# 
   349     000E                     TMR1L           equ	14	;# 
   350     000F                     TMR1H           equ	15	;# 
   351     0010                     T1CON           equ	16	;# 
   352     0011                     TMR2            equ	17	;# 
   353     0012                     T2CON           equ	18	;# 
   354     0013                     SSPBUF          equ	19	;# 
   355     0014                     SSPCON          equ	20	;# 
   356     0015                     CCPR1           equ	21	;# 
   357     0015                     CCPR1L          equ	21	;# 
   358     0016                     CCPR1H          equ	22	;# 
   359     0017                     CCP1CON         equ	23	;# 
   360     0018                     RCSTA           equ	24	;# 
   361     0019                     TXREG           equ	25	;# 
   362     001A                     RCREG           equ	26	;# 
   363     001B                     CCPR2           equ	27	;# 
   364     001B                     CCPR2L          equ	27	;# 
   365     001C                     CCPR2H          equ	28	;# 
   366     001D                     CCP2CON         equ	29	;# 
   367     001E                     ADRESH          equ	30	;# 
   368     001F                     ADCON0          equ	31	;# 
   369     0081                     OPTION_REG      equ	129	;# 
   370     0085                     TRISA           equ	133	;# 
   371     0086                     TRISB           equ	134	;# 
   372     0087                     TRISC           equ	135	;# 
   373     0088                     TRISD           equ	136	;# 
   374     0089                     TRISE           equ	137	;# 
   375     008C                     PIE1            equ	140	;# 
   376     008D                     PIE2            equ	141	;# 
   377     008E                     PCON            equ	142	;# 
   378     0091                     SSPCON2         equ	145	;# 
   379     0092                     PR2             equ	146	;# 
   380     0093                     SSPADD          equ	147	;# 
   381     0094                     SSPSTAT         equ	148	;# 
   382     0098                     TXSTA           equ	152	;# 
   383     0099                     SPBRG           equ	153	;# 
   384     009C                     CMCON           equ	156	;# 
   385     009D                     CVRCON          equ	157	;# 
   386     009E                     ADRESL          equ	158	;# 
   387     009F                     ADCON1          equ	159	;# 
   388     010C                     EEDATA          equ	268	;# 
   389     010D                     EEADR           equ	269	;# 
   390     010E                     EEDATH          equ	270	;# 
   391     010F                     EEADRH          equ	271	;# 
   392     018C                     EECON1          equ	396	;# 
   393     018D                     EECON2          equ	397	;# 
   394     0000                     INDF            equ	0	;# 
   395     0001                     TMR0            equ	1	;# 
   396     0002                     PCL             equ	2	;# 
   397     0003                     STATUS          equ	3	;# 
   398     0004                     FSR             equ	4	;# 
   399     0005                     PORTA           equ	5	;# 
   400     0006                     PORTB           equ	6	;# 
   401     0007                     PORTC           equ	7	;# 
   402     0008                     PORTD           equ	8	;# 
   403     0009                     PORTE           equ	9	;# 
   404     000A                     PCLATH          equ	10	;# 
   405     000B                     INTCON          equ	11	;# 
   406     000C                     PIR1            equ	12	;# 
   407     000D                     PIR2            equ	13	;# 
   408     000E                     TMR1            equ	14	;# 
   409     000E                     TMR1L           equ	14	;# 
   410     000F                     TMR1H           equ	15	;# 
   411     0010                     T1CON           equ	16	;# 
   412     0011                     TMR2            equ	17	;# 
   413     0012                     T2CON           equ	18	;# 
   414     0013                     SSPBUF          equ	19	;# 
   415     0014                     SSPCON          equ	20	;# 
   416     0015                     CCPR1           equ	21	;# 
   417     0015                     CCPR1L          equ	21	;# 
   418     0016                     CCPR1H          equ	22	;# 
   419     0017                     CCP1CON         equ	23	;# 
   420     0018                     RCSTA           equ	24	;# 
   421     0019                     TXREG           equ	25	;# 
   422     001A                     RCREG           equ	26	;# 
   423     001B                     CCPR2           equ	27	;# 
   424     001B                     CCPR2L          equ	27	;# 
   425     001C                     CCPR2H          equ	28	;# 
   426     001D                     CCP2CON         equ	29	;# 
   427     001E                     ADRESH          equ	30	;# 
   428     001F                     ADCON0          equ	31	;# 
   429     0081                     OPTION_REG      equ	129	;# 
   430     0085                     TRISA           equ	133	;# 
   431     0086                     TRISB           equ	134	;# 
   432     0087                     TRISC           equ	135	;# 
   433     0088                     TRISD           equ	136	;# 
   434     0089                     TRISE           equ	137	;# 
   435     008C                     PIE1            equ	140	;# 
   436     008D                     PIE2            equ	141	;# 
   437     008E                     PCON            equ	142	;# 
   438     0091                     SSPCON2         equ	145	;# 
   439     0092                     PR2             equ	146	;# 
   440     0093                     SSPADD          equ	147	;# 
   441     0094                     SSPSTAT         equ	148	;# 
   442     0098                     TXSTA           equ	152	;# 
   443     0099                     SPBRG           equ	153	;# 
   444     009C                     CMCON           equ	156	;# 
   445     009D                     CVRCON          equ	157	;# 
   446     009E                     ADRESL          equ	158	;# 
   447     009F                     ADCON1          equ	159	;# 
   448     010C                     EEDATA          equ	268	;# 
   449     010D                     EEADR           equ	269	;# 
   450     010E                     EEDATH          equ	270	;# 
   451     010F                     EEADRH          equ	271	;# 
   452     018C                     EECON1          equ	396	;# 
   453     018D                     EECON2          equ	397	;# 
   454     0000                     INDF            equ	0	;# 
   455     0001                     TMR0            equ	1	;# 
   456     0002                     PCL             equ	2	;# 
   457     0003                     STATUS          equ	3	;# 
   458     0004                     FSR             equ	4	;# 
   459     0005                     PORTA           equ	5	;# 
   460     0006                     PORTB           equ	6	;# 
   461     0007                     PORTC           equ	7	;# 
   462     0008                     PORTD           equ	8	;# 
   463     0009                     PORTE           equ	9	;# 
   464     000A                     PCLATH          equ	10	;# 
   465     000B                     INTCON          equ	11	;# 
   466     000C                     PIR1            equ	12	;# 
   467     000D                     PIR2            equ	13	;# 
   468     000E                     TMR1            equ	14	;# 
   469     000E                     TMR1L           equ	14	;# 
   470     000F                     TMR1H           equ	15	;# 
   471     0010                     T1CON           equ	16	;# 
   472     0011                     TMR2            equ	17	;# 
   473     0012                     T2CON           equ	18	;# 
   474     0013                     SSPBUF          equ	19	;# 
   475     0014                     SSPCON          equ	20	;# 
   476     0015                     CCPR1           equ	21	;# 
   477     0015                     CCPR1L          equ	21	;# 
   478     0016                     CCPR1H          equ	22	;# 
   479     0017                     CCP1CON         equ	23	;# 
   480     0018                     RCSTA           equ	24	;# 
   481     0019                     TXREG           equ	25	;# 
   482     001A                     RCREG           equ	26	;# 
   483     001B                     CCPR2           equ	27	;# 
   484     001B                     CCPR2L          equ	27	;# 
   485     001C                     CCPR2H          equ	28	;# 
   486     001D                     CCP2CON         equ	29	;# 
   487     001E                     ADRESH          equ	30	;# 
   488     001F                     ADCON0          equ	31	;# 
   489     0081                     OPTION_REG      equ	129	;# 
   490     0085                     TRISA           equ	133	;# 
   491     0086                     TRISB           equ	134	;# 
   492     0087                     TRISC           equ	135	;# 
   493     0088                     TRISD           equ	136	;# 
   494     0089                     TRISE           equ	137	;# 
   495     008C                     PIE1            equ	140	;# 
   496     008D                     PIE2            equ	141	;# 
   497     008E                     PCON            equ	142	;# 
   498     0091                     SSPCON2         equ	145	;# 
   499     0092                     PR2             equ	146	;# 
   500     0093                     SSPADD          equ	147	;# 
   501     0094                     SSPSTAT         equ	148	;# 
   502     0098                     TXSTA           equ	152	;# 
   503     0099                     SPBRG           equ	153	;# 
   504     009C                     CMCON           equ	156	;# 
   505     009D                     CVRCON          equ	157	;# 
   506     009E                     ADRESL          equ	158	;# 
   507     009F                     ADCON1          equ	159	;# 
   508     010C                     EEDATA          equ	268	;# 
   509     010D                     EEADR           equ	269	;# 
   510     010E                     EEDATH          equ	270	;# 
   511     010F                     EEADRH          equ	271	;# 
   512     018C                     EECON1          equ	396	;# 
   513     018D                     EECON2          equ	397	;# 
   514                           
   515                           	psect	idataCOMMON
   516     07FD                     __pidataCOMMON:
   517                           
   518                           ;initializer for read_digital_keypad@pre_key
   519     07FD  343F               	retlw	63
   520                           
   521                           ;initializer for read_digital_keypad@once
   522     07FE  3401               	retlw	1
   523                           
   524                           	psect	idataBANK0
   525     14B5                     __pidataBANK0:
   526                           
   527                           ;initializer for _reset_flag
   528     14B5  3411               	retlw	17
   529                           
   530                           ;initializer for _operational_mode
   531     14B6  3401               	retlw	1
   532                           
   533                           	psect	idataBANK1
   534     1537                     __pidataBANK1:
   535                           
   536                           ;initializer for _washing_program
   537     1537  3443               	retlw	low (STR_7| (0+32768))
   538     1538  3491               	retlw	high (STR_7| (0+32768))
   539     1539  3449               	retlw	low (STR_8| (0+32768))
   540     153A  3491               	retlw	high (STR_8| (0+32768))
   541     153B  34DE               	retlw	low (STR_9| (0+32768))
   542     153C  3490               	retlw	high (STR_9| (0+32768))
   543     153D  3430               	retlw	low (STR_10| (0+32768))
   544     153E  3491               	retlw	high (STR_10| (0+32768))
   545     153F  34B2               	retlw	low (STR_11| (0+32768))
   546     1540  3490               	retlw	high (STR_11| (0+32768))
   547     1541  34BD               	retlw	low (STR_12| (0+32768))
   548     1542  3490               	retlw	high (STR_12| (0+32768))
   549     1543  3421               	retlw	low (STR_13| (0+32768))
   550     1544  3491               	retlw	high (STR_13| (0+32768))
   551     1545  34C8               	retlw	low (STR_14| (0+32768))
   552     1546  3490               	retlw	high (STR_14| (0+32768))
   553     1547  34F2               	retlw	low (STR_15| (0+32768))
   554     1548  3490               	retlw	high (STR_15| (0+32768))
   555     1549  340F               	retlw	low (STR_16| (0+32768))
   556     154A  3491               	retlw	high (STR_16| (0+32768))
   557     154B  34E8               	retlw	low (STR_17| (0+32768))
   558     154C  3490               	retlw	high (STR_17| (0+32768))
   559     154D  34A7               	retlw	low (STR_18| (0+32768))
   560     154E  3490               	retlw	high (STR_18| (0+32768))
   561                           
   562                           ;initializer for _water_level
   563     154F  345E               	retlw	low (STR_19| (0+32768))
   564     1550  3491               	retlw	high (STR_19| (0+32768))
   565     1551  3468               	retlw	low (STR_20| (0+32768))
   566     1552  3491               	retlw	high (STR_20| (0+32768))
   567     1553  3429               	retlw	low (STR_21| (0+32768))
   568     1554  3491               	retlw	high (STR_21| (0+32768))
   569     1555  3454               	retlw	low (STR_22| (0+32768))
   570     1556  3491               	retlw	high (STR_22| (0+32768))
   571     1557  346C               	retlw	low (STR_23| (0+32768))
   572     1558  3491               	retlw	high (STR_23| (0+32768))
   573     0006                     _PORTB          set	6
   574     0008                     _PORTD          set	8
   575     0030                     _RB0            set	48
   576     0061                     _TMR2IF         set	97
   577     0049                     _RE1            set	73
   578     004A                     _RE2            set	74
   579     0092                     _TMR2ON         set	146
   580     003A                     _RC2            set	58
   581     0039                     _RC1            set	57
   582     005E                     _PEIE           set	94
   583     005F                     _GIE            set	95
   584     0092                     _PR2            set	146
   585     0086                     _TRISB          set	134
   586     0088                     _TRISD          set	136
   587     0461                     _TMR2IE         set	1121
   588     0449                     _TRISE1         set	1097
   589     044A                     _TRISE2         set	1098
   590     043A                     _TRISC2         set	1082
   591     0439                     _TRISC1         set	1081
   592                           
   593                           	psect	strings
   594     1170                     __pstrings:
   595     1170                     stringtab:
   596     1170                     __stringtab:
   597                           
   598                           ;	String table - string pointers are 2 bytes each
   599     1170  1BFF               	btfsc	btemp+1,7
   600     1171  297A               	ljmp	stringcode
   601     1172  1383               	bcf	3,7
   602     1173  187F               	btfsc	btemp+1,0
   603     1174  1783               	bsf	3,7
   604     1175  0800               	movf	0,w
   605     1176  0A84               	incf	4,f
   606     1177  1903               	skipnz
   607     1178  0AFF               	incf	btemp+1,f
   608     1179  0008               	return
   609     117A                     stringcode:
   610     117A  087F               	movf	btemp+1,w
   611     117B  397F               	andlw	127
   612     117C  008A               	movwf	10
   613     117D  0804               	movf	4,w
   614     117E  0A84               	incf	4,f
   615     117F  1903               	skipnz
   616     1180  0AFF               	incf	btemp+1,f
   617     1181  0082               	movwf	2
   618     1182                     __stringbase:
   619     1182                     __end_of__stringtab:
   620                           
   621                           	psect	stringtext
   622     1000                     __pstringtext:
   623     1000                     STR_41:
   624     1000  3450               	retlw	80	;'P'
   625     1001  3472               	retlw	114	;'r'
   626     1002  346F               	retlw	111	;'o'
   627     1003  3467               	retlw	103	;'g'
   628     1004  3472               	retlw	114	;'r'
   629     1005  3461               	retlw	97	;'a'
   630     1006  346D               	retlw	109	;'m'
   631     1007  3443               	retlw	67	;'C'
   632     1008  346F               	retlw	111	;'o'
   633     1009  346D               	retlw	109	;'m'
   634     100A  3470               	retlw	112	;'p'
   635     100B  346C               	retlw	108	;'l'
   636     100C  3465               	retlw	101	;'e'
   637     100D  3474               	retlw	116	;'t'
   638     100E  3465               	retlw	101	;'e'
   639     100F  3464               	retlw	100	;'d'
   640     1010  3400               	retlw	0
   641     1011                     STR_26:
   642     1011  3457               	retlw	87	;'W'
   643     1012  3461               	retlw	97	;'a'
   644     1013  3473               	retlw	115	;'s'
   645     1014  3468               	retlw	104	;'h'
   646     1015  3469               	retlw	105	;'i'
   647     1016  346E               	retlw	110	;'n'
   648     1017  3467               	retlw	103	;'g'
   649     1018  3420               	retlw	32	;' '
   650     1019  3450               	retlw	80	;'P'
   651     101A  3472               	retlw	114	;'r'
   652     101B  346F               	retlw	111	;'o'
   653     101C  3467               	retlw	103	;'g'
   654     101D  3472               	retlw	114	;'r'
   655     101E  3461               	retlw	97	;'a'
   656     101F  346D               	retlw	109	;'m'
   657     1020  3473               	retlw	115	;'s'
   658     1021  3400               	retlw	0
   659     1022                     STR_3:
   660     1022  3457               	retlw	87	;'W'
   661     1023  3461               	retlw	97	;'a'
   662     1024  3473               	retlw	115	;'s'
   663     1025  3468               	retlw	104	;'h'
   664     1026  3469               	retlw	105	;'i'
   665     1027  346E               	retlw	110	;'n'
   666     1028  3467               	retlw	103	;'g'
   667     1029  3420               	retlw	32	;' '
   668     102A  344D               	retlw	77	;'M'
   669     102B  3461               	retlw	97	;'a'
   670     102C  3463               	retlw	99	;'c'
   671     102D  3468               	retlw	104	;'h'
   672     102E  3469               	retlw	105	;'i'
   673     102F  346E               	retlw	110	;'n'
   674     1030  3465               	retlw	101	;'e'
   675     1031  3400               	retlw	0
   676     1032                     STR_42:
   677     1032  3452               	retlw	82	;'R'
   678     1033  3465               	retlw	101	;'e'
   679     1034  346D               	retlw	109	;'m'
   680     1035  346F               	retlw	111	;'o'
   681     1036  3476               	retlw	118	;'v'
   682     1037  3465               	retlw	101	;'e'
   683     1038  3420               	retlw	32	;' '
   684     1039  3443               	retlw	67	;'C'
   685     103A  346C               	retlw	108	;'l'
   686     103B  346F               	retlw	111	;'o'
   687     103C  3474               	retlw	116	;'t'
   688     103D  3468               	retlw	104	;'h'
   689     103E  3465               	retlw	101	;'e'
   690     103F  3473               	retlw	115	;'s'
   691     1040  3400               	retlw	0
   692     1041                     STR_44:
   693     1041  3450               	retlw	80	;'P'
   694     1042  346C               	retlw	108	;'l'
   695     1043  3465               	retlw	101	;'e'
   696     1044  3461               	retlw	97	;'a'
   697     1045  3473               	retlw	115	;'s'
   698     1046  3465               	retlw	101	;'e'
   699     1047  3420               	retlw	32	;' '
   700     1048  3463               	retlw	99	;'c'
   701     1049  346C               	retlw	108	;'l'
   702     104A  346F               	retlw	111	;'o'
   703     104B  3473               	retlw	115	;'s'
   704     104C  3465               	retlw	101	;'e'
   705     104D  3420               	retlw	32	;' '
   706     104E  3400               	retlw	0
   707     104F                     STR_1:
   708     104F  3450               	retlw	80	;'P'
   709     1050  3472               	retlw	114	;'r'
   710     1051  3465               	retlw	101	;'e'
   711     1052  3473               	retlw	115	;'s'
   712     1053  3473               	retlw	115	;'s'
   713     1054  3420               	retlw	32	;' '
   714     1055  344B               	retlw	75	;'K'
   715     1056  3465               	retlw	101	;'e'
   716     1057  3479               	retlw	121	;'y'
   717     1058  3435               	retlw	53	;'5'
   718     1059  3420               	retlw	32	;' '
   719     105A  3474               	retlw	116	;'t'
   720     105B  346F               	retlw	111	;'o'
   721     105C  3400               	retlw	0
   722     105D                     STR_27:
   723     105D  3457               	retlw	87	;'W'
   724     105E  3461               	retlw	97	;'a'
   725     105F  3474               	retlw	116	;'t'
   726     1060  3465               	retlw	101	;'e'
   727     1061  3472               	retlw	114	;'r'
   728     1062  345F               	retlw	95	;'_'
   729     1063  344C               	retlw	76	;'L'
   730     1064  3465               	retlw	101	;'e'
   731     1065  3476               	retlw	118	;'v'
   732     1066  3465               	retlw	101	;'e'
   733     1067  346C               	retlw	108	;'l'
   734     1068  343A               	retlw	58	;':'
   735     1069  3400               	retlw	0
   736     106A                     STR_43:
   737     106A  3444               	retlw	68	;'D'
   738     106B  346F               	retlw	111	;'o'
   739     106C  346F               	retlw	111	;'o'
   740     106D  3472               	retlw	114	;'r'
   741     106E  3420               	retlw	32	;' '
   742     106F  3469               	retlw	105	;'i'
   743     1070  3473               	retlw	115	;'s'
   744     1071  3420               	retlw	32	;' '
   745     1072  344F               	retlw	79	;'O'
   746     1073  3470               	retlw	112	;'p'
   747     1074  3465               	retlw	101	;'e'
   748     1075  346E               	retlw	110	;'n'
   749     1076  3400               	retlw	0
   750     1077                     STR_4:
   751     1077  3450               	retlw	80	;'P'
   752     1078  3472               	retlw	114	;'r'
   753     1079  3465               	retlw	101	;'e'
   754     107A  3473               	retlw	115	;'s'
   755     107B  3473               	retlw	115	;'s'
   756     107C  3420               	retlw	32	;' '
   757     107D  3453               	retlw	83	;'S'
   758     107E  3477               	retlw	119	;'w'
   759     107F  3469               	retlw	105	;'i'
   760     1080  3474               	retlw	116	;'t'
   761     1081  3463               	retlw	99	;'c'
   762     1082  3468               	retlw	104	;'h'
   763     1083  3400               	retlw	0
   764     1084                     STR_32:
   765     1084  3453               	retlw	83	;'S'
   766     1085  3457               	retlw	87	;'W'
   767     1086  3435               	retlw	53	;'5'
   768     1087  343A               	retlw	58	;':'
   769     1088  3420               	retlw	32	;' '
   770     1089  3453               	retlw	83	;'S'
   771     108A  3454               	retlw	84	;'T'
   772     108B  3441               	retlw	65	;'A'
   773     108C  3452               	retlw	82	;'R'
   774     108D  3454               	retlw	84	;'T'
   775     108E  3420               	retlw	32	;' '
   776     108F  3400               	retlw	0
   777     1090                     STR_24:
   778     1090  3450               	retlw	80	;'P'
   779     1091  346F               	retlw	111	;'o'
   780     1092  3477               	retlw	119	;'w'
   781     1093  3465               	retlw	101	;'e'
   782     1094  3472               	retlw	114	;'r'
   783     1095  3469               	retlw	105	;'i'
   784     1096  346E               	retlw	110	;'n'
   785     1097  3467               	retlw	103	;'g'
   786     1098  3420               	retlw	32	;' '
   787     1099  344F               	retlw	79	;'O'
   788     109A  346E               	retlw	110	;'n'
   789     109B  3400               	retlw	0
   790     109C                     STR_33:
   791     109C  3453               	retlw	83	;'S'
   792     109D  3457               	retlw	87	;'W'
   793     109E  3436               	retlw	54	;'6'
   794     109F  343A               	retlw	58	;':'
   795     10A0  3420               	retlw	32	;' '
   796     10A1  3450               	retlw	80	;'P'
   797     10A2  3441               	retlw	65	;'A'
   798     10A3  3455               	retlw	85	;'U'
   799     10A4  3453               	retlw	83	;'S'
   800     10A5  3445               	retlw	69	;'E'
   801     10A6  3400               	retlw	0
   802     10A7                     STR_18:
   803     10A7  3441               	retlw	65	;'A'
   804     10A8  3471               	retlw	113	;'q'
   805     10A9  3475               	retlw	117	;'u'
   806     10AA  3461               	retlw	97	;'a'
   807     10AB  3420               	retlw	32	;' '
   808     10AC  3453               	retlw	83	;'S'
   809     10AD  3474               	retlw	116	;'t'
   810     10AE  346F               	retlw	111	;'o'
   811     10AF  3472               	retlw	114	;'r'
   812     10B0  3465               	retlw	101	;'e'
   813     10B1  3400               	retlw	0
   814     10B2                     STR_11:
   815     10B2  3453               	retlw	83	;'S'
   816     10B3  3474               	retlw	116	;'t'
   817     10B4  3461               	retlw	97	;'a'
   818     10B5  3469               	retlw	105	;'i'
   819     10B6  346E               	retlw	110	;'n'
   820     10B7  3420               	retlw	32	;' '
   821     10B8  3457               	retlw	87	;'W'
   822     10B9  3461               	retlw	97	;'a'
   823     10BA  3473               	retlw	115	;'s'
   824     10BB  3468               	retlw	104	;'h'
   825     10BC  3400               	retlw	0
   826     10BD                     STR_12:
   827     10BD  3445               	retlw	69	;'E'
   828     10BE  3463               	retlw	99	;'c'
   829     10BF  346F               	retlw	111	;'o'
   830     10C0  3463               	retlw	99	;'c'
   831     10C1  346F               	retlw	111	;'o'
   832     10C2  3474               	retlw	116	;'t'
   833     10C3  3474               	retlw	116	;'t'
   834     10C4  346F               	retlw	111	;'o'
   835     10C5  346E               	retlw	110	;'n'
   836     10C6  3473               	retlw	115	;'s'
   837     10C7  3400               	retlw	0
   838     10C8                     STR_14:
   839     10C8  3442               	retlw	66	;'B'
   840     10C9  3465               	retlw	101	;'e'
   841     10CA  3464               	retlw	100	;'d'
   842     10CB  3420               	retlw	32	;' '
   843     10CC  3453               	retlw	83	;'S'
   844     10CD  3468               	retlw	104	;'h'
   845     10CE  3465               	retlw	101	;'e'
   846     10CF  3465               	retlw	101	;'e'
   847     10D0  3474               	retlw	116	;'t'
   848     10D1  3473               	retlw	115	;'s'
   849     10D2  3400               	retlw	0
   850     10D3                     STR_5:
   851     10D3  3453               	retlw	83	;'S'
   852     10D4  3457               	retlw	87	;'W'
   853     10D5  3435               	retlw	53	;'5'
   854     10D6  343A               	retlw	58	;':'
   855     10D7  3420               	retlw	32	;' '
   856     10D8  3453               	retlw	83	;'S'
   857     10D9  3474               	retlw	116	;'t'
   858     10DA  3461               	retlw	97	;'a'
   859     10DB  3472               	retlw	114	;'r'
   860     10DC  3474               	retlw	116	;'t'
   861     10DD  3400               	retlw	0
   862     10DE                     STR_9:
   863     10DE  3444               	retlw	68	;'D'
   864     10DF  3465               	retlw	101	;'e'
   865     10E0  346C               	retlw	108	;'l'
   866     10E1  3469               	retlw	105	;'i'
   867     10E2  3463               	retlw	99	;'c'
   868     10E3  3461               	retlw	97	;'a'
   869     10E4  3474               	retlw	116	;'t'
   870     10E5  3465               	retlw	101	;'e'
   871     10E6  3473               	retlw	115	;'s'
   872     10E7  3400               	retlw	0
   873     10E8                     STR_17:
   874     10E8  3457               	retlw	87	;'W'
   875     10E9  3461               	retlw	97	;'a'
   876     10EA  3473               	retlw	115	;'s'
   877     10EB  3468               	retlw	104	;'h'
   878     10EC  3420               	retlw	32	;' '
   879     10ED  346F               	retlw	111	;'o'
   880     10EE  346E               	retlw	110	;'n'
   881     10EF  346C               	retlw	108	;'l'
   882     10F0  3479               	retlw	121	;'y'
   883     10F1  3400               	retlw	0
   884     10F2                     STR_15:
   885     10F2  3452               	retlw	82	;'R'
   886     10F3  3469               	retlw	105	;'i'
   887     10F4  346E               	retlw	110	;'n'
   888     10F5  3473               	retlw	115	;'s'
   889     10F6  3465               	retlw	101	;'e'
   890     10F7  342B               	retlw	43	;'+'
   891     10F8  3444               	retlw	68	;'D'
   892     10F9  3472               	retlw	114	;'r'
   893     10FA  3479               	retlw	121	;'y'
   894     10FB  3400               	retlw	0
   895     10FC                     STR_6:
   896     10FC  3453               	retlw	83	;'S'
   897     10FD  3457               	retlw	87	;'W'
   898     10FE  3436               	retlw	54	;'6'
   899     10FF  343A               	retlw	58	;':'
   900     1100  3420               	retlw	32	;' '
   901     1101  3453               	retlw	83	;'S'
   902     1102  3474               	retlw	116	;'t'
   903     1103  346F               	retlw	111	;'o'
   904     1104  3470               	retlw	112	;'p'
   905     1105  3400               	retlw	0
   906     1106                     STR_30:
   907     1106  3446               	retlw	70	;'F'
   908     1107  3475               	retlw	117	;'u'
   909     1108  346E               	retlw	110	;'n'
   910     1109  3463               	retlw	99	;'c'
   911     110A  3474               	retlw	116	;'t'
   912     110B  3469               	retlw	105	;'i'
   913     110C  346F               	retlw	111	;'o'
   914     110D  346E               	retlw	110	;'n'
   915     110E  3400               	retlw	0
   916     110F                     STR_16:
   917     110F  3444               	retlw	68	;'D'
   918     1110  3472               	retlw	114	;'r'
   919     1111  3479               	retlw	121	;'y'
   920     1112  3420               	retlw	32	;' '
   921     1113  344F               	retlw	79	;'O'
   922     1114  346E               	retlw	110	;'n'
   923     1115  346C               	retlw	108	;'l'
   924     1116  3479               	retlw	121	;'y'
   925     1117  3400               	retlw	0
   926     1118                     STR_2:
   927     1118  3450               	retlw	80	;'P'
   928     1119  346F               	retlw	111	;'o'
   929     111A  3477               	retlw	119	;'w'
   930     111B  3465               	retlw	101	;'e'
   931     111C  3472               	retlw	114	;'r'
   932     111D  3420               	retlw	32	;' '
   933     111E  344F               	retlw	79	;'O'
   934     111F  346E               	retlw	110	;'n'
   935     1120  3400               	retlw	0
   936     1121                     STR_13:
   937     1121  3457               	retlw	87	;'W'
   938     1122  346F               	retlw	111	;'o'
   939     1123  346F               	retlw	111	;'o'
   940     1124  346C               	retlw	108	;'l'
   941     1125  3465               	retlw	101	;'e'
   942     1126  346E               	retlw	110	;'n'
   943     1127  3473               	retlw	115	;'s'
   944     1128  3400               	retlw	0
   945     1129                     STR_21:
   946     1129  344D               	retlw	77	;'M'
   947     112A  3465               	retlw	101	;'e'
   948     112B  3464               	retlw	100	;'d'
   949     112C  3469               	retlw	105	;'i'
   950     112D  3475               	retlw	117	;'u'
   951     112E  346D               	retlw	109	;'m'
   952     112F  3400               	retlw	0
   953     1130                     STR_10:
   954     1130  3457               	retlw	87	;'W'
   955     1131  3468               	retlw	104	;'h'
   956     1132  3469               	retlw	105	;'i'
   957     1133  3474               	retlw	116	;'t'
   958     1134  3465               	retlw	101	;'e'
   959     1135  3473               	retlw	115	;'s'
   960     1136  3400               	retlw	0
   961     1137                     STR_28:
   962     1137  3450               	retlw	80	;'P'
   963     1138  3472               	retlw	114	;'r'
   964     1139  346F               	retlw	111	;'o'
   965     113A  3467               	retlw	103	;'g'
   966     113B  343A               	retlw	58	;':'
   967     113C  3400               	retlw	0
   968     113D                     STR_35:
   969     113D  3452               	retlw	82	;'R'
   970     113E  3469               	retlw	105	;'i'
   971     113F  346E               	retlw	110	;'n'
   972     1140  3473               	retlw	115	;'s'
   973     1141  3465               	retlw	101	;'e'
   974     1142  3400               	retlw	0
   975     1143                     STR_7:
   976     1143  3444               	retlw	68	;'D'
   977     1144  3461               	retlw	97	;'a'
   978     1145  3469               	retlw	105	;'i'
   979     1146  346C               	retlw	108	;'l'
   980     1147  3479               	retlw	121	;'y'
   981     1148  3400               	retlw	0
   982     1149                     STR_8:
   983     1149  3448               	retlw	72	;'H'
   984     114A  3465               	retlw	101	;'e'
   985     114B  3461               	retlw	97	;'a'
   986     114C  3476               	retlw	118	;'v'
   987     114D  3479               	retlw	121	;'y'
   988     114E  3400               	retlw	0
   989     114F                     STR_29:
   990     114F  3454               	retlw	84	;'T'
   991     1150  3469               	retlw	105	;'i'
   992     1151  346D               	retlw	109	;'m'
   993     1152  3465               	retlw	101	;'e'
   994     1153  3400               	retlw	0
   995     1154                     STR_22:
   996     1154  3448               	retlw	72	;'H'
   997     1155  3469               	retlw	105	;'i'
   998     1156  3467               	retlw	103	;'g'
   999     1157  3468               	retlw	104	;'h'
  1000     1158  3400               	retlw	0
  1001     1159                     STR_36:
  1002     1159  3453               	retlw	83	;'S'
  1003     115A  3470               	retlw	112	;'p'
  1004     115B  3469               	retlw	105	;'i'
  1005     115C  346E               	retlw	110	;'n'
  1006     115D  3400               	retlw	0
  1007     115E                     STR_19:
  1008     115E  3441               	retlw	65	;'A'
  1009     115F  3475               	retlw	117	;'u'
  1010     1160  3474               	retlw	116	;'t'
  1011     1161  346F               	retlw	111	;'o'
  1012     1162  3400               	retlw	0
  1013     1163                     STR_45:
  1014     1163  3444               	retlw	68	;'D'
  1015     1164  346F               	retlw	111	;'o'
  1016     1165  346F               	retlw	111	;'o'
  1017     1166  3472               	retlw	114	;'r'
  1018     1167  3400               	retlw	0
  1019     1168                     STR_20:
  1020     1168  344C               	retlw	76	;'L'
  1021     1169  346F               	retlw	111	;'o'
  1022     116A  3477               	retlw	119	;'w'
  1023     116B  3400               	retlw	0
  1024     116C                     STR_23:
  1025     116C  344D               	retlw	77	;'M'
  1026     116D  3461               	retlw	97	;'a'
  1027     116E  3478               	retlw	120	;'x'
  1028     116F  3400               	retlw	0
  1029     1106                     STR_46          equ	STR_30
  1030     1159                     STR_38          equ	STR_36
  1031     1159                     STR_39          equ	STR_36
  1032     10B8                     STR_34          equ	STR_11+6
  1033     10B8                     STR_40          equ	STR_11+6
  1034     113D                     STR_37          equ	STR_35
  1035     1022                     STR_25          equ	STR_3
  1036     114F                     STR_31          equ	STR_29
  1037     114F                     STR_47          equ	STR_29
  1038     109C                     STR_49          equ	STR_33
  1039     1084                     STR_48          equ	STR_32
  1040                           
  1041                           	psect	cinit
  1042     000F                     start_initialization:	
  1043                           ; #config settings
  1044                           
  1045     000F                     __initialization:
  1046                           
  1047                           ; Initialize objects allocated to BANK1
  1048     000F  1383               	bcf	3,7	;select IRP bank0
  1049     0010  30C2               	movlw	low (__pdataBANK1+34)
  1050     0011  00FD               	movwf	btemp+-1
  1051     0012  3015               	movlw	high __pidataBANK1
  1052     0013  00FE               	movwf	btemp
  1053     0014  3037               	movlw	low __pidataBANK1
  1054     0015  00FF               	movwf	btemp+1
  1055     0016  30A0               	movlw	low __pdataBANK1
  1056     0017  0084               	movwf	4
  1057     0018  160A  118A  24F9  120A  118A  	fcall	init_ram0
  1058                           
  1059                           ; Initialize objects allocated to BANK0
  1060     001D  160A  118A  24B5  120A  118A  	fcall	__pidataBANK0	;fetch initializer
  1061     0022  00ED               	movwf	__pdataBANK0& (0+127)
  1062     0023  160A  118A  24B6  120A  118A  	fcall	__pidataBANK0+1	;fetch initializer
  1063     0028  00EE               	movwf	(__pdataBANK0+1)& (0+127)
  1064                           
  1065                           ; Initialize objects allocated to COMMON
  1066     0029  120A  118A  27FD  120A  118A  	fcall	__pidataCOMMON	;fetch initializer
  1067     002E  00F9               	movwf	__pdataCOMMON& (0+127)
  1068     002F  120A  118A  27FE  120A  118A  	fcall	__pidataCOMMON+1	;fetch initializer
  1069     0034  00FA               	movwf	(__pdataCOMMON+1)& (0+127)
  1070                           
  1071                           ; Clear objects allocated to BANK1
  1072     0035  1683               	bsf	3,5	;RP0=1, select bank1
  1073     0036  1303               	bcf	3,6	;RP1=0, select bank1
  1074     0037  01C2               	clrf	__pbssBANK1& (0+127)
  1075     0038  01C3               	clrf	(__pbssBANK1+1)& (0+127)
  1076     0039  01C4               	clrf	(__pbssBANK1+2)& (0+127)
  1077     003A  01C5               	clrf	(__pbssBANK1+3)& (0+127)
  1078     003B  01C6               	clrf	(__pbssBANK1+4)& (0+127)
  1079     003C  01C7               	clrf	(__pbssBANK1+5)& (0+127)
  1080     003D  01C8               	clrf	(__pbssBANK1+6)& (0+127)
  1081                           
  1082                           ; Clear objects allocated to BANK0
  1083     003E  1283               	bcf	3,5	;RP0=0, select bank0
  1084     003F  1303               	bcf	3,6	;RP1=0, select bank0
  1085     0040  01E5               	clrf	__pbssBANK0& (0+127)
  1086     0041  01E6               	clrf	(__pbssBANK0+1)& (0+127)
  1087     0042  01E7               	clrf	(__pbssBANK0+2)& (0+127)
  1088     0043  01E8               	clrf	(__pbssBANK0+3)& (0+127)
  1089     0044  01E9               	clrf	(__pbssBANK0+4)& (0+127)
  1090     0045  01EA               	clrf	(__pbssBANK0+5)& (0+127)
  1091     0046  01EB               	clrf	(__pbssBANK0+6)& (0+127)
  1092     0047  01EC               	clrf	(__pbssBANK0+7)& (0+127)
  1093                           
  1094                           ; Clear objects allocated to COMMON
  1095     0048  01FB               	clrf	__pbssCOMMON& (0+127)
  1096     0049                     end_of_initialization:	
  1097                           ;End of C runtime variable initialization code
  1098                           
  1099     0049                     __end_of__initialization:
  1100     0049  0183               	clrf	3
  1101     004A  120A  158A  2B38   	ljmp	_main	;jump to C main() function
  1102                           
  1103                           	psect	bssCOMMON
  1104     007B                     __pbssCOMMON:
  1105     007B                     read_digital_keypad@long_press_count:
  1106     007B                     	ds	1
  1107                           
  1108                           	psect	dataCOMMON
  1109     0079                     __pdataCOMMON:
  1110     0079                     read_digital_keypad@pre_key:
  1111     0079                     	ds	1
  1112     007A                     read_digital_keypad@once:
  1113     007A                     	ds	1
  1114                           
  1115                           	psect	bssBANK0
  1116     0065                     __pbssBANK0:
  1117     0065                     _time:
  1118     0065                     	ds	1
  1119     0066                     _spin_time:
  1120     0066                     	ds	1
  1121     0067                     _wash_time:
  1122     0067                     	ds	1
  1123     0068                     _total_time:
  1124     0068                     	ds	1
  1125     0069                     _level:
  1126     0069                     	ds	1
  1127     006A                     _program_no:
  1128     006A                     	ds	1
  1129     006B                     _min:
  1130     006B                     	ds	1
  1131     006C                     _sec:
  1132     006C                     	ds	1
  1133                           
  1134                           	psect	dataBANK0
  1135     006D                     __pdataBANK0:
  1136     006D                     _reset_flag:
  1137     006D                     	ds	1
  1138     006E                     _operational_mode:
  1139     006E                     	ds	1
  1140                           
  1141                           	psect	bssBANK1
  1142     00C2                     __pbssBANK1:
  1143     00C2                     isr@count:
  1144     00C2                     	ds	4
  1145     00C6                     _count:
  1146     00C6                     	ds	2
  1147     00C8                     _rinse_time:
  1148     00C8                     	ds	1
  1149                           
  1150                           	psect	dataBANK1
  1151     00A0                     __pdataBANK1:
  1152     00A0                     _washing_program:
  1153     00A0                     	ds	24
  1154     00B8                     _water_level:
  1155     00B8                     	ds	10
  1156                           
  1157                           	psect	inittext
  1158     14F5                     init_fetch0:	
  1159                           ;	Called with low address in FSR and high address in W
  1160                           
  1161     14F5  087E               	movf	btemp,w
  1162     14F6  008A               	movwf	10
  1163     14F7  087F               	movf	btemp+1,w
  1164     14F8  0082               	movwf	2
  1165     14F9                     init_ram0:	
  1166                           ;Called with:
  1167                           ;	high address of idata address in btemp 
  1168                           ;	low address of idata address in btemp+1 
  1169                           ;	low address of data in FSR
  1170                           ;	high address + 1 of data in btemp-1
  1171                           
  1172     14F9  160A  118A  24F5  160A  118A  	fcall	init_fetch0
  1173     14FE  0080               	movwf	0
  1174     14FF  0A84               	incf	4,f
  1175     1500  0804               	movf	4,w
  1176     1501  067D               	xorwf	btemp+-1,w
  1177     1502  1903               	btfsc	3,2
  1178     1503  3400               	retlw	0
  1179     1504  0AFF               	incf	btemp+1,f
  1180     1505  1903               	btfsc	3,2
  1181     1506  0AFE               	incf	btemp,f
  1182     1507  2CF9               	goto	init_ram0
  1183                           
  1184                           	psect	cstackBANK1
  1185     00C9                     __pcstackBANK1:
  1186     00C9                     main@delay:
  1187                           
  1188                           ; 2 bytes @ 0x0
  1189     00C9                     	ds	2
  1190     00CB                     main@delay_93:
  1191                           
  1192                           ; 2 bytes @ 0x2
  1193     00CB                     	ds	2
  1194     00CD                     main@key:
  1195                           
  1196                           ; 1 bytes @ 0x4
  1197     00CD                     	ds	1
  1198                           
  1199                           	psect	cstackCOMMON
  1200     0070                     __pcstackCOMMON:
  1201     0070                     ?_init_clcd:
  1202     0070                     ?_init_digital_keypad:	
  1203                           ; 1 bytes @ 0x0
  1204                           
  1205     0070                     ?_init_timer2:	
  1206                           ; 1 bytes @ 0x0
  1207                           
  1208     0070                     ?_read_digital_keypad:	
  1209                           ; 1 bytes @ 0x0
  1210                           
  1211     0070                     ?_clear_screen:	
  1212                           ; 1 bytes @ 0x0
  1213                           
  1214     0070                     ?_power_on_screen:	
  1215                           ; 1 bytes @ 0x0
  1216                           
  1217     0070                     ?_set_time:	
  1218                           ; 1 bytes @ 0x0
  1219                           
  1220     0070                     ?_washing_program_display:	
  1221                           ; 1 bytes @ 0x0
  1222                           
  1223     0070                     ?_water_level_screen:	
  1224                           ; 1 bytes @ 0x0
  1225                           
  1226     0070                     ?_run_program:	
  1227                           ; 1 bytes @ 0x0
  1228                           
  1229     0070                     ?_door_status_check:	
  1230                           ; 1 bytes @ 0x0
  1231                           
  1232     0070                     ?_init_config:	
  1233                           ; 1 bytes @ 0x0
  1234                           
  1235     0070                     ?_main:	
  1236                           ; 1 bytes @ 0x0
  1237                           
  1238     0070                     ?_init_display_controller:	
  1239                           ; 1 bytes @ 0x0
  1240                           
  1241     0070                     ?_isr:	
  1242                           ; 1 bytes @ 0x0
  1243                           
  1244     0070                     ??_isr:	
  1245                           ; 1 bytes @ 0x0
  1246                           
  1247                           
  1248                           ; 1 bytes @ 0x0
  1249     0070                     	ds	2
  1250     0072                     ?_clcd_write:
  1251     0072                     ?___bmul:	
  1252                           ; 1 bytes @ 0x2
  1253                           
  1254     0072                     ?__Umul8_16:	
  1255                           ; 1 bytes @ 0x2
  1256                           
  1257     0072                     ?___awdiv:	
  1258                           ; 2 bytes @ 0x2
  1259                           
  1260     0072                     ?___awmod:	
  1261                           ; 2 bytes @ 0x2
  1262                           
  1263     0072                     ?___xxtofl:	
  1264                           ; 2 bytes @ 0x2
  1265                           
  1266     0072                     clcd_write@mode:	
  1267                           ; 4 bytes @ 0x2
  1268                           
  1269     0072                     read_digital_keypad@mode:	
  1270                           ; 1 bytes @ 0x2
  1271                           
  1272     0072                     ___bmul@multiplicand:	
  1273                           ; 1 bytes @ 0x2
  1274                           
  1275     0072                     ___fladd@signs:	
  1276                           ; 1 bytes @ 0x2
  1277                           
  1278     0072                     __Umul8_16@multiplicand:	
  1279                           ; 1 bytes @ 0x2
  1280                           
  1281     0072                     ___awdiv@divisor:	
  1282                           ; 1 bytes @ 0x2
  1283                           
  1284     0072                     ___awmod@divisor:	
  1285                           ; 2 bytes @ 0x2
  1286                           
  1287     0072                     ___xxtofl@val:	
  1288                           ; 2 bytes @ 0x2
  1289                           
  1290     0072                     ??_init_digital_keypad:	
  1291                           ; 4 bytes @ 0x2
  1292                           
  1293     0072                     ??_init_timer2:	
  1294                           ; 1 bytes @ 0x2
  1295                           
  1296     0072                     ??_read_digital_keypad:	
  1297                           ; 1 bytes @ 0x2
  1298                           
  1299     0072                     ??_set_time:	
  1300                           ; 1 bytes @ 0x2
  1301                           
  1302                           
  1303                           ; 1 bytes @ 0x2
  1304     0072                     	ds	1
  1305     0073                     read_digital_keypad@key:
  1306     0073                     ___bmul@product:	
  1307                           ; 1 bytes @ 0x3
  1308                           
  1309     0073                     ___fladd@aexp:	
  1310                           ; 1 bytes @ 0x3
  1311                           
  1312     0073                     ??_clcd_write:	
  1313                           ; 1 bytes @ 0x3
  1314                           
  1315     0073                     ??___bmul:	
  1316                           ; 1 bytes @ 0x3
  1317                           
  1318                           
  1319                           ; 1 bytes @ 0x3
  1320     0073                     	ds	1
  1321     0074                     ___bmul@multiplier:
  1322     0074                     ___fladd@bexp:	
  1323                           ; 1 bytes @ 0x4
  1324                           
  1325     0074                     ___awdiv@dividend:	
  1326                           ; 1 bytes @ 0x4
  1327                           
  1328     0074                     ___awmod@dividend:	
  1329                           ; 2 bytes @ 0x4
  1330                           
  1331     0074                     ??__Umul8_16:	
  1332                           ; 2 bytes @ 0x4
  1333                           
  1334                           
  1335                           ; 1 bytes @ 0x4
  1336     0074                     	ds	1
  1337     0075                     clcd_write@byte:
  1338     0075                     ___fladd@grs:	
  1339                           ; 1 bytes @ 0x5
  1340                           
  1341                           
  1342                           ; 1 bytes @ 0x5
  1343     0075                     	ds	1
  1344     0076                     ___awmod@counter:
  1345     0076                     ___fltol@sign1:	
  1346                           ; 1 bytes @ 0x6
  1347                           
  1348     0076                     ??_clear_screen:	
  1349                           ; 1 bytes @ 0x6
  1350                           
  1351     0076                     ??_init_display_controller:	
  1352                           ; 1 bytes @ 0x6
  1353                           
  1354     0076                     ??___awdiv:	
  1355                           ; 1 bytes @ 0x6
  1356                           
  1357     0076                     ??___awmod:	
  1358                           ; 1 bytes @ 0x6
  1359                           
  1360     0076                     ??___flsub:	
  1361                           ; 1 bytes @ 0x6
  1362                           
  1363                           
  1364                           ; 1 bytes @ 0x6
  1365     0076                     	ds	1
  1366     0077                     ___awmod@sign:
  1367     0077                     ___fltol@exp1:	
  1368                           ; 1 bytes @ 0x7
  1369                           
  1370                           
  1371                           ; 1 bytes @ 0x7
  1372     0077                     	ds	1
  1373     0078                     ?_clcd_putch:
  1374     0078                     clcd_putch@addr:	
  1375                           ; 1 bytes @ 0x8
  1376                           
  1377     0078                     ??_init_clcd:	
  1378                           ; 1 bytes @ 0x8
  1379                           
  1380     0078                     ??_clcd_print:	
  1381                           ; 1 bytes @ 0x8
  1382                           
  1383     0078                     ??_door_status_check:	
  1384                           ; 1 bytes @ 0x8
  1385                           
  1386     0078                     ??_init_config:	
  1387                           ; 1 bytes @ 0x8
  1388                           
  1389                           
  1390                           ; 1 bytes @ 0x8
  1391     0078                     	ds	1
  1392     0079                     ??_main:
  1393     0079                     ??_clcd_putch:	
  1394                           ; 1 bytes @ 0x9
  1395                           
  1396                           
  1397                           	psect	cstackBANK0
  1398     0020                     __pcstackBANK0:	
  1399                           ; 1 bytes @ 0x9
  1400                           
  1401     0020                     ?_clcd_print:
  1402     0020                     ?___fladd:	
  1403                           ; 1 bytes @ 0x0
  1404                           
  1405     0020                     ___awdiv@counter:	
  1406                           ; 4 bytes @ 0x0
  1407                           
  1408     0020                     clcd_print@str:	
  1409                           ; 1 bytes @ 0x0
  1410                           
  1411     0020                     __Umul8_16@product:	
  1412                           ; 2 bytes @ 0x0
  1413                           
  1414     0020                     ___fladd@b:	
  1415                           ; 2 bytes @ 0x0
  1416                           
  1417     0020                     ??___xxtofl:	
  1418                           ; 4 bytes @ 0x0
  1419                           
  1420                           
  1421                           ; 1 bytes @ 0x0
  1422     0020                     	ds	1
  1423     0021                     ___awdiv@sign:
  1424                           
  1425                           ; 1 bytes @ 0x1
  1426     0021                     	ds	1
  1427     0022                     clcd_print@addr:
  1428     0022                     ___awdiv@quotient:	
  1429                           ; 1 bytes @ 0x2
  1430                           
  1431     0022                     __Umul8_16@word_mpld:	
  1432                           ; 2 bytes @ 0x2
  1433                           
  1434                           
  1435                           ; 2 bytes @ 0x2
  1436     0022                     	ds	2
  1437     0024                     clcd_putch@data:
  1438     0024                     __Umul8_16@multiplier:	
  1439                           ; 1 bytes @ 0x4
  1440                           
  1441     0024                     ___xxtofl@sign:	
  1442                           ; 1 bytes @ 0x4
  1443                           
  1444     0024                     ___fladd@a:	
  1445                           ; 1 bytes @ 0x4
  1446                           
  1447                           
  1448                           ; 4 bytes @ 0x4
  1449     0024                     	ds	1
  1450     0025                     ___xxtofl@exp:
  1451     0025                     ??_power_on_screen:	
  1452                           ; 1 bytes @ 0x5
  1453                           
  1454     0025                     ??_washing_program_display:	
  1455                           ; 1 bytes @ 0x5
  1456                           
  1457     0025                     ??_water_level_screen:	
  1458                           ; 1 bytes @ 0x5
  1459                           
  1460                           
  1461                           ; 1 bytes @ 0x5
  1462     0025                     	ds	1
  1463     0026                     ___xxtofl@arg:
  1464                           
  1465                           ; 4 bytes @ 0x6
  1466     0026                     	ds	1
  1467     0027                     washing_program_display@key:
  1468     0027                     water_level_screen@key:	
  1469                           ; 1 bytes @ 0x7
  1470                           
  1471                           
  1472                           ; 1 bytes @ 0x7
  1473     0027                     	ds	1
  1474     0028                     power_on_screen@i:
  1475     0028                     ??___fladd:	
  1476                           ; 2 bytes @ 0x8
  1477                           
  1478                           
  1479                           ; 1 bytes @ 0x8
  1480     0028                     	ds	2
  1481     002A                     ?___flmul:
  1482     002A                     power_on_screen@i_194:	
  1483                           ; 4 bytes @ 0xA
  1484                           
  1485     002A                     ___flmul@b:	
  1486                           ; 2 bytes @ 0xA
  1487                           
  1488                           
  1489                           ; 4 bytes @ 0xA
  1490     002A                     	ds	4
  1491     002E                     ___flmul@a:
  1492                           
  1493                           ; 4 bytes @ 0xE
  1494     002E                     	ds	4
  1495     0032                     ??___flmul:
  1496                           
  1497                           ; 1 bytes @ 0x12
  1498     0032                     	ds	5
  1499     0037                     ___flmul@sign:
  1500                           
  1501                           ; 1 bytes @ 0x17
  1502     0037                     	ds	1
  1503     0038                     ___flmul@aexp:
  1504                           
  1505                           ; 1 bytes @ 0x18
  1506     0038                     	ds	1
  1507     0039                     ___flmul@grs:
  1508                           
  1509                           ; 4 bytes @ 0x19
  1510     0039                     	ds	4
  1511     003D                     ___flmul@bexp:
  1512                           
  1513                           ; 1 bytes @ 0x1D
  1514     003D                     	ds	1
  1515     003E                     ___flmul@prod:
  1516                           
  1517                           ; 4 bytes @ 0x1E
  1518     003E                     	ds	4
  1519     0042                     ___flmul@temp:
  1520                           
  1521                           ; 2 bytes @ 0x22
  1522     0042                     	ds	2
  1523     0044                     ?___fltol:
  1524     0044                     ?___flsub:	
  1525                           ; 4 bytes @ 0x24
  1526                           
  1527     0044                     ___fltol@f1:	
  1528                           ; 4 bytes @ 0x24
  1529                           
  1530     0044                     ___flsub@a:	
  1531                           ; 4 bytes @ 0x24
  1532                           
  1533                           
  1534                           ; 4 bytes @ 0x24
  1535     0044                     	ds	4
  1536     0048                     ___flsub@b:
  1537     0048                     ??___fltol:	
  1538                           ; 4 bytes @ 0x28
  1539                           
  1540                           
  1541                           ; 1 bytes @ 0x28
  1542     0048                     	ds	4
  1543     004C                     ?___flge:
  1544     004C                     ___flge@ff1:	
  1545                           ; 1 bit 
  1546                           
  1547                           
  1548                           ; 4 bytes @ 0x2C
  1549     004C                     	ds	4
  1550     0050                     ___flge@ff2:
  1551                           
  1552                           ; 4 bytes @ 0x30
  1553     0050                     	ds	4
  1554     0054                     ??___flge:
  1555                           
  1556                           ; 1 bytes @ 0x34
  1557     0054                     	ds	4
  1558     0058                     ??_run_program:
  1559                           
  1560                           ; 1 bytes @ 0x38
  1561     0058                     	ds	12
  1562     0064                     run_program@key:
  1563                           
  1564                           ; 1 bytes @ 0x44
  1565     0064                     	ds	1
  1566                           
  1567                           	psect	maintext
  1568     0B38                     __pmaintext:	
  1569 ;;
  1570 ;;Main: autosize = 0, tempsize = 0, incstack = 0, save=0
  1571 ;;
  1572 ;; *************** function _main *****************
  1573 ;; Defined at:
  1574 ;;		line 203 in file "main.c"
  1575 ;; Parameters:    Size  Location     Type
  1576 ;;		None
  1577 ;; Auto vars:     Size  Location     Type
  1578 ;;  delay           2    2[BANK1 ] unsigned int 
  1579 ;;  delay           2    0[BANK1 ] unsigned int 
  1580 ;;  key             1    4[BANK1 ] unsigned char 
  1581 ;; Return value:  Size  Location     Type
  1582 ;;                  1    wreg      void 
  1583 ;; Registers used:
  1584 ;;		wreg, fsr0l, fsr0h, status,2, status,0, btemp+1, pclath, cstack
  1585 ;; Tracked objects:
  1586 ;;		On entry : B00/0
  1587 ;;		On exit  : 0/0
  1588 ;;		Unchanged: 0/0
  1589 ;; Data sizes:     COMMON   BANK0   BANK1   BANK3   BANK2
  1590 ;;      Params:         0       0       0       0       0
  1591 ;;      Locals:         0       0       5       0       0
  1592 ;;      Temps:          0       0       0       0       0
  1593 ;;      Totals:         0       0       5       0       0
  1594 ;;Total ram usage:        5 bytes
  1595 ;; Hardware stack levels required when called: 5
  1596 ;; This function calls:
  1597 ;;		_clcd_print
  1598 ;;		_clear_screen
  1599 ;;		_init_config
  1600 ;;		_power_on_screen
  1601 ;;		_read_digital_keypad
  1602 ;;		_run_program
  1603 ;;		_set_time
  1604 ;;		_washing_program_display
  1605 ;;		_water_level_screen
  1606 ;; This function is called by:
  1607 ;;		Startup code after reset
  1608 ;; This function uses a non-reentrant model
  1609 ;;
  1610                           
  1611     0B38                     _main:	
  1612                           ;psect for function _main
  1613                           
  1614     0B38                     l4169:	
  1615                           ;incstack = 0
  1616                           ; Regs used in _main: [wreg-fsr0h+status,2+status,0+btemp+1+pclath+cstack]
  1617                           
  1618     0B38  160A  118A  251D  120A  158A  	fcall	_init_config
  1619     0B3D  2B79               	goto	l4177
  1620     0B3E                     l4171:
  1621     0B3E  302C               	movlw	44
  1622     0B3F  1683               	bsf	3,5	;RP0=1, select bank1
  1623     0B40  1303               	bcf	3,6	;RP1=0, select bank1
  1624     0B41  00C9               	movwf	main@delay^(0+128)
  1625     0B42  3001               	movlw	1
  1626     0B43  00CA               	movwf	(main@delay^(0+128)+1)
  1627     0B44                     l4173:
  1628     0B44  3001               	movlw	1
  1629     0B45  02C9               	subwf	main@delay^(0+128),f
  1630     0B46  3000               	movlw	0
  1631     0B47  1C03               	skipc
  1632     0B48  03CA               	decf	(main@delay+1)^(0+128),f
  1633     0B49  02CA               	subwf	(main@delay+1)^(0+128),f
  1634     0B4A  0A49               	incf	main@delay^(0+128),w
  1635     0B4B  1D03               	skipz
  1636     0B4C  2B51               	goto	u5481
  1637     0B4D  0A4A               	incf	(main@delay+1)^(0+128),w
  1638     0B4E  1D03               	btfss	3,2
  1639     0B4F  2B51               	goto	u5481
  1640     0B50  2B52               	goto	u5480
  1641     0B51                     u5481:
  1642     0B51  2B44               	goto	l4173
  1643     0B52                     u5480:
  1644     0B52                     l4175:
  1645     0B52  304F               	movlw	low (STR_1| (0+32768))
  1646     0B53  1283               	bcf	3,5	;RP0=0, select bank0
  1647     0B54  1303               	bcf	3,6	;RP1=0, select bank0
  1648     0B55  00A0               	movwf	clcd_print@str
  1649     0B56  3090               	movlw	high (STR_1| (0+32768))
  1650     0B57  00A1               	movwf	clcd_print@str+1
  1651     0B58  3081               	movlw	129
  1652     0B59  00A2               	movwf	clcd_print@addr
  1653     0B5A  160A  118A  25A6  120A  158A  	fcall	_clcd_print
  1654     0B5F  3018               	movlw	low (STR_2| (0+32768))
  1655     0B60  1283               	bcf	3,5	;RP0=0, select bank0
  1656     0B61  1303               	bcf	3,6	;RP1=0, select bank0
  1657     0B62  00A0               	movwf	clcd_print@str
  1658     0B63  3091               	movlw	high (STR_2| (0+32768))
  1659     0B64  00A1               	movwf	clcd_print@str+1
  1660     0B65  30C5               	movlw	197
  1661     0B66  00A2               	movwf	clcd_print@addr
  1662     0B67  160A  118A  25A6  120A  158A  	fcall	_clcd_print
  1663     0B6C  3022               	movlw	low (STR_3| (0+32768))
  1664     0B6D  1283               	bcf	3,5	;RP0=0, select bank0
  1665     0B6E  1303               	bcf	3,6	;RP1=0, select bank0
  1666     0B6F  00A0               	movwf	clcd_print@str
  1667     0B70  3090               	movlw	high (STR_3| (0+32768))
  1668     0B71  00A1               	movwf	clcd_print@str+1
  1669     0B72  3091               	movlw	145
  1670     0B73  00A2               	movwf	clcd_print@addr
  1671     0B74  160A  118A  25A6  120A  158A  	fcall	_clcd_print
  1672     0B79                     l4177:
  1673     0B79  3001               	movlw	1
  1674     0B7A  160A  118A  2626  120A  158A  	fcall	_read_digital_keypad
  1675     0B7F  3A2F               	xorlw	47
  1676     0B80  1D03               	skipz
  1677     0B81  2B83               	goto	u5491
  1678     0B82  2B84               	goto	u5490
  1679     0B83                     u5491:
  1680     0B83  2B3E               	goto	l4171
  1681     0B84                     u5490:
  1682     0B84                     l4179:
  1683     0B84  160A  118A  24D1  120A  158A  	fcall	_clear_screen
  1684     0B89                     l4181:
  1685     0B89  120A  158A  2138  120A  158A  	fcall	_power_on_screen
  1686     0B8E                     l4183:
  1687                           
  1688                           ;main.c: 253:         key = read_digital_keypad(1);
  1689     0B8E  3001               	movlw	1
  1690     0B8F  160A  118A  2626  120A  158A  	fcall	_read_digital_keypad
  1691     0B94  1683               	bsf	3,5	;RP0=1, select bank1
  1692     0B95  1303               	bcf	3,6	;RP1=0, select bank1
  1693     0B96  00CD               	movwf	main@key^(0+128)
  1694     0B97                     l4185:
  1695                           
  1696                           ;main.c: 256:         for (unsigned int delay = 3000; delay--;);
  1697     0B97  30B8               	movlw	184
  1698     0B98  00CB               	movwf	main@delay_93^(0+128)
  1699     0B99  300B               	movlw	11
  1700     0B9A  00CC               	movwf	(main@delay_93^(0+128)+1)
  1701     0B9B                     l4187:
  1702     0B9B  3001               	movlw	1
  1703     0B9C  02CB               	subwf	main@delay_93^(0+128),f
  1704     0B9D  3000               	movlw	0
  1705     0B9E  1C03               	skipc
  1706     0B9F  03CC               	decf	(main@delay_93+1)^(0+128),f
  1707     0BA0  02CC               	subwf	(main@delay_93+1)^(0+128),f
  1708     0BA1  0A4B               	incf	main@delay_93^(0+128),w
  1709     0BA2  1D03               	skipz
  1710     0BA3  2BA8               	goto	u5501
  1711     0BA4  0A4C               	incf	(main@delay_93+1)^(0+128),w
  1712     0BA5  1D03               	btfss	3,2
  1713     0BA6  2BA8               	goto	u5501
  1714     0BA7  2BA9               	goto	u5500
  1715     0BA8                     u5501:
  1716     0BA8  2B9B               	goto	l4187
  1717     0BA9                     u5500:
  1718     0BA9                     l4189:
  1719                           
  1720                           ;main.c: 259:         if ((key == 0x99) && (operational_mode == 0x01)) {
  1721     0BA9  3099               	movlw	153
  1722     0BAA  064D               	xorwf	main@key^(0+128),w
  1723     0BAB  1D03               	btfss	3,2
  1724     0BAC  2BAE               	goto	u5511
  1725     0BAD  2BAF               	goto	u5510
  1726     0BAE                     u5511:
  1727     0BAE  2BBB               	goto	l4195
  1728     0BAF                     u5510:
  1729     0BAF                     l4191:
  1730     0BAF  1283               	bcf	3,5	;RP0=0, select bank0
  1731     0BB0  1303               	bcf	3,6	;RP1=0, select bank0
  1732     0BB1  036E               	decf	_operational_mode,w
  1733     0BB2  1D03               	btfss	3,2
  1734     0BB3  2BB5               	goto	u5521
  1735     0BB4  2BB6               	goto	u5520
  1736     0BB5                     u5521:
  1737     0BB5  2BBB               	goto	l4195
  1738     0BB6                     u5520:
  1739     0BB6                     l4193:
  1740                           
  1741                           ;main.c: 260:             operational_mode = 0x02;
  1742     0BB6  3002               	movlw	2
  1743     0BB7  00EE               	movwf	_operational_mode
  1744                           
  1745                           ;main.c: 261:             reset_flag = 0x11;
  1746     0BB8  3011               	movlw	17
  1747     0BB9  00ED               	movwf	_reset_flag
  1748                           
  1749                           ;main.c: 262:         } else if ((key == 0x99) && (operational_mode == 0x02)) {
  1750     0BBA  2C4C               	goto	l4233
  1751     0BBB                     l4195:
  1752     0BBB  3099               	movlw	153
  1753     0BBC  1683               	bsf	3,5	;RP0=1, select bank1
  1754     0BBD  1303               	bcf	3,6	;RP1=0, select bank1
  1755     0BBE  064D               	xorwf	main@key^(0+128),w
  1756     0BBF  1D03               	btfss	3,2
  1757     0BC0  2BC2               	goto	u5531
  1758     0BC1  2BC3               	goto	u5530
  1759     0BC2                     u5531:
  1760     0BC2  2BFF               	goto	l4211
  1761     0BC3                     u5530:
  1762     0BC3                     l4197:
  1763     0BC3  3002               	movlw	2
  1764     0BC4  1283               	bcf	3,5	;RP0=0, select bank0
  1765     0BC5  1303               	bcf	3,6	;RP1=0, select bank0
  1766     0BC6  066E               	xorwf	_operational_mode,w
  1767     0BC7  1D03               	btfss	3,2
  1768     0BC8  2BCA               	goto	u5541
  1769     0BC9  2BCB               	goto	u5540
  1770     0BCA                     u5541:
  1771     0BCA  2BFF               	goto	l4211
  1772     0BCB                     u5540:
  1773     0BCB                     l4199:
  1774                           
  1775                           ;main.c: 263:             operational_mode = 0x03;
  1776     0BCB  3003               	movlw	3
  1777     0BCC  00EE               	movwf	_operational_mode
  1778     0BCD                     l4201:
  1779                           
  1780                           ;main.c: 264:             clear_screen();
  1781     0BCD  160A  118A  24D1  120A  158A  	fcall	_clear_screen
  1782     0BD2                     l4203:
  1783                           
  1784                           ;main.c: 265:             clcd_print("Press Switch", (0x80 + 0));
  1785     0BD2  3077               	movlw	low (STR_4| (0+32768))
  1786     0BD3  1283               	bcf	3,5	;RP0=0, select bank0
  1787     0BD4  1303               	bcf	3,6	;RP1=0, select bank0
  1788     0BD5  00A0               	movwf	clcd_print@str
  1789     0BD6  3090               	movlw	high (STR_4| (0+32768))
  1790     0BD7  00A1               	movwf	clcd_print@str+1
  1791     0BD8  3080               	movlw	128
  1792     0BD9  00A2               	movwf	clcd_print@addr
  1793     0BDA  160A  118A  25A6  120A  158A  	fcall	_clcd_print
  1794     0BDF                     l4205:
  1795                           
  1796                           ;main.c: 266:             clcd_print("SW5: Start", (0xC0 + 0));
  1797     0BDF  30D3               	movlw	low (STR_5| (0+32768))
  1798     0BE0  1283               	bcf	3,5	;RP0=0, select bank0
  1799     0BE1  1303               	bcf	3,6	;RP1=0, select bank0
  1800     0BE2  00A0               	movwf	clcd_print@str
  1801     0BE3  3090               	movlw	high (STR_5| (0+32768))
  1802     0BE4  00A1               	movwf	clcd_print@str+1
  1803     0BE5  30C0               	movlw	192
  1804     0BE6  00A2               	movwf	clcd_print@addr
  1805     0BE7  160A  118A  25A6  120A  158A  	fcall	_clcd_print
  1806     0BEC                     l4207:
  1807                           
  1808                           ;main.c: 267:             clcd_print("SW6: Stop", (0x90 + 0));
  1809     0BEC  30FC               	movlw	low (STR_6| (0+32768))
  1810     0BED  1283               	bcf	3,5	;RP0=0, select bank0
  1811     0BEE  1303               	bcf	3,6	;RP1=0, select bank0
  1812     0BEF  00A0               	movwf	clcd_print@str
  1813     0BF0  3090               	movlw	high (STR_6| (0+32768))
  1814     0BF1  00A1               	movwf	clcd_print@str+1
  1815     0BF2  3090               	movlw	144
  1816     0BF3  00A2               	movwf	clcd_print@addr
  1817     0BF4  160A  118A  25A6  120A  158A  	fcall	_clcd_print
  1818     0BF9                     l4209:
  1819                           
  1820                           ;main.c: 268:             set_time();
  1821     0BF9  120A  158A  2460  120A  158A  	fcall	_set_time
  1822                           
  1823                           ;main.c: 269:         }
  1824     0BFE  2C4C               	goto	l4233
  1825     0BFF                     l4211:
  1826     0BFF  302F               	movlw	47
  1827     0C00  1683               	bsf	3,5	;RP0=1, select bank1
  1828     0C01  1303               	bcf	3,6	;RP1=0, select bank1
  1829     0C02  064D               	xorwf	main@key^(0+128),w
  1830     0C03  1D03               	btfss	3,2
  1831     0C04  2C06               	goto	u5551
  1832     0C05  2C07               	goto	u5550
  1833     0C06                     u5551:
  1834     0C06  2C14               	goto	l59
  1835     0C07                     u5550:
  1836     0C07                     l4213:
  1837     0C07  3055               	movlw	85
  1838     0C08  1283               	bcf	3,5	;RP0=0, select bank0
  1839     0C09  1303               	bcf	3,6	;RP1=0, select bank0
  1840     0C0A  066E               	xorwf	_operational_mode,w
  1841     0C0B  1D03               	btfss	3,2
  1842     0C0C  2C0E               	goto	u5561
  1843     0C0D  2C0F               	goto	u5560
  1844     0C0E                     u5561:
  1845     0C0E  2C14               	goto	l59
  1846     0C0F                     u5560:
  1847     0C0F                     l4215:
  1848                           
  1849                           ;main.c: 271:             operational_mode = 0x04;
  1850     0C0F  3004               	movlw	4
  1851     0C10  00EE               	movwf	_operational_mode
  1852                           
  1853                           ;main.c: 272:             TMR2ON = 1;
  1854     0C11  1512               	bsf	18,2	;volatile
  1855                           
  1856                           ;main.c: 273:             RC2 = 1;
  1857     0C12  1507               	bsf	7,2	;volatile
  1858     0C13  2C4C               	goto	l4233
  1859     0C14                     l59:
  1860                           
  1861                           ;main.c: 300:         switch (operational_mode) {
  1862     0C14  2C4C               	goto	l4233
  1863     0C15                     l4217:
  1864                           
  1865                           ;main.c: 302:                 washing_program_display(key);
  1866     0C15  1683               	bsf	3,5	;RP0=1, select bank1
  1867     0C16  1303               	bcf	3,6	;RP1=0, select bank1
  1868     0C17  084D               	movf	main@key^(0+128),w
  1869     0C18  120A  158A  2099  120A  158A  	fcall	_washing_program_display
  1870                           
  1871                           ;main.c: 303:                 break;
  1872     0C1D  2B8E               	goto	l4183
  1873     0C1E                     l4219:
  1874                           
  1875                           ;main.c: 305:                 water_level_screen(key);
  1876     0C1E  1683               	bsf	3,5	;RP0=1, select bank1
  1877     0C1F  1303               	bcf	3,6	;RP1=0, select bank1
  1878     0C20  084D               	movf	main@key^(0+128),w
  1879     0C21  120A  158A  21D8  120A  158A  	fcall	_water_level_screen
  1880                           
  1881                           ;main.c: 306:                 break;
  1882     0C26  2B8E               	goto	l4183
  1883     0C27                     l4221:
  1884                           
  1885                           ;main.c: 308:             {;main.c: 309:                 if (key == 0x2F) {
  1886     0C27  302F               	movlw	47
  1887     0C28  1683               	bsf	3,5	;RP0=1, select bank1
  1888     0C29  1303               	bcf	3,6	;RP1=0, select bank1
  1889     0C2A  064D               	xorwf	main@key^(0+128),w
  1890     0C2B  1D03               	btfss	3,2
  1891     0C2C  2C2E               	goto	u5571
  1892     0C2D  2C2F               	goto	u5570
  1893     0C2E                     u5571:
  1894     0C2E  2C36               	goto	l4225
  1895     0C2F                     u5570:
  1896     0C2F                     l4223:
  1897                           
  1898                           ;main.c: 310:                     operational_mode = 0x04;
  1899     0C2F  3004               	movlw	4
  1900     0C30  1283               	bcf	3,5	;RP0=0, select bank0
  1901     0C31  1303               	bcf	3,6	;RP1=0, select bank0
  1902     0C32  00EE               	movwf	_operational_mode
  1903                           
  1904                           ;main.c: 311:                     reset_flag = 0x44;
  1905     0C33  3044               	movlw	68
  1906     0C34  00ED               	movwf	_reset_flag
  1907                           
  1908                           ;main.c: 312:                 }
  1909     0C35  2B8E               	goto	l4183
  1910     0C36                     l4225:
  1911     0C36  301F               	movlw	31
  1912     0C37  064D               	xorwf	main@key^(0+128),w
  1913     0C38  1D03               	btfss	3,2
  1914     0C39  2C3B               	goto	u5581
  1915     0C3A  2C3C               	goto	u5580
  1916     0C3B                     u5581:
  1917     0C3B  2C5C               	goto	l65
  1918     0C3C                     u5580:
  1919     0C3C                     l4227:
  1920                           
  1921                           ;main.c: 314:                     operational_mode = 0x01;
  1922     0C3C  3001               	movlw	1
  1923     0C3D  1283               	bcf	3,5	;RP0=0, select bank0
  1924     0C3E  1303               	bcf	3,6	;RP1=0, select bank0
  1925     0C3F  00EE               	movwf	_operational_mode
  1926                           
  1927                           ;main.c: 315:                     reset_flag = 0x11;
  1928     0C40  3011               	movlw	17
  1929     0C41  00ED               	movwf	_reset_flag
  1930     0C42  2B8E               	goto	l4183
  1931     0C43                     l4229:
  1932                           
  1933                           ;main.c: 320:                 run_program(key);
  1934     0C43  1683               	bsf	3,5	;RP0=1, select bank1
  1935     0C44  1303               	bcf	3,6	;RP1=0, select bank1
  1936     0C45  084D               	movf	main@key^(0+128),w
  1937     0C46  120A  118A  204D  120A  158A  	fcall	_run_program
  1938                           
  1939                           ;main.c: 321:                 break;
  1940     0C4B  2B8E               	goto	l4183
  1941     0C4C                     l4233:
  1942     0C4C  1283               	bcf	3,5	;RP0=0, select bank0
  1943     0C4D  1303               	bcf	3,6	;RP1=0, select bank0
  1944     0C4E  086E               	movf	_operational_mode,w
  1945                           
  1946                           ; Switch size 1, requested type "simple"
  1947                           ; Number of cases is 4, Range of values is 1 to 4
  1948                           ; switch strategies available:
  1949                           ; Name         Instructions Cycles
  1950                           ; simple_byte           13     7 (average)
  1951                           ; direct_byte           23    11 (fixed)
  1952                           ; jumptable            263     9 (fixed)
  1953                           ;	Chosen strategy is simple_byte
  1954     0C4F  3A01               	xorlw	1	; case 1
  1955     0C50  1903               	skipnz
  1956     0C51  2C15               	goto	l4217
  1957     0C52  3A03               	xorlw	3	; case 2
  1958     0C53  1903               	skipnz
  1959     0C54  2C1E               	goto	l4219
  1960     0C55  3A01               	xorlw	1	; case 3
  1961     0C56  1903               	skipnz
  1962     0C57  2C27               	goto	l4221
  1963     0C58  3A07               	xorlw	7	; case 4
  1964     0C59  1903               	skipnz
  1965     0C5A  2C43               	goto	l4229
  1966     0C5B  2B8E               	goto	l4183
  1967     0C5C                     l65:
  1968     0C5C  2B8E               	goto	l4183
  1969     0C5D  120A  118A  280C   	ljmp	start
  1970     0C60                     __end_of_main:
  1971                           
  1972                           	psect	text1
  1973     09D8                     __ptext1:	
  1974 ;; *************** function _water_level_screen *****************
  1975 ;; Defined at:
  1976 ;;		line 55 in file "Washing_Machine_Function_def.c"
  1977 ;; Parameters:    Size  Location     Type
  1978 ;;  key             1    wreg     unsigned char 
  1979 ;; Auto vars:     Size  Location     Type
  1980 ;;  key             1    7[BANK0 ] unsigned char 
  1981 ;; Return value:  Size  Location     Type
  1982 ;;                  1    wreg      void 
  1983 ;; Registers used:
  1984 ;;		wreg, fsr0l, fsr0h, status,2, status,0, btemp+1, pclath, cstack
  1985 ;; Tracked objects:
  1986 ;;		On entry : 0/0
  1987 ;;		On exit  : 0/0
  1988 ;;		Unchanged: 0/0
  1989 ;; Data sizes:     COMMON   BANK0   BANK1   BANK3   BANK2
  1990 ;;      Params:         0       0       0       0       0
  1991 ;;      Locals:         0       1       0       0       0
  1992 ;;      Temps:          0       2       0       0       0
  1993 ;;      Totals:         0       3       0       0       0
  1994 ;;Total ram usage:        3 bytes
  1995 ;; Hardware stack levels used: 1
  1996 ;; Hardware stack levels required when called: 3
  1997 ;; This function calls:
  1998 ;;		___awmod
  1999 ;;		_clcd_print
  2000 ;;		_clcd_putch
  2001 ;;		_clear_screen
  2002 ;; This function is called by:
  2003 ;;		_main
  2004 ;; This function uses a non-reentrant model
  2005 ;;
  2006                           
  2007     09D8                     _water_level_screen:	
  2008                           ;psect for function _water_level_screen
  2009                           
  2010                           
  2011                           ;incstack = 0
  2012                           ; Regs used in _water_level_screen: [wreg-fsr0h+status,2+status,0+btemp+1+pclath+cstack]
  2013                           ;water_level_screen@key stored from wreg
  2014     09D8  1283               	bcf	3,5	;RP0=0, select bank0
  2015     09D9  1303               	bcf	3,6	;RP1=0, select bank0
  2016     09DA  00A7               	movwf	water_level_screen@key
  2017     09DB                     l3811:
  2018                           
  2019                           ;Washing_Machine_Function_def.c: 56:     if (reset_flag == 0x22) {
  2020     09DB  3022               	movlw	34
  2021     09DC  066D               	xorwf	_reset_flag,w
  2022     09DD  1D03               	btfss	3,2
  2023     09DE  29E0               	goto	u5041
  2024     09DF  29E1               	goto	u5040
  2025     09E0                     u5041:
  2026     09E0  29EA               	goto	l3817
  2027     09E1                     u5040:
  2028     09E1                     l3813:
  2029                           
  2030                           ;Washing_Machine_Function_def.c: 57:         clear_screen();
  2031     09E1  160A  118A  24D1  120A  158A  	fcall	_clear_screen
  2032     09E6                     l3815:
  2033                           
  2034                           ;Washing_Machine_Function_def.c: 58:         reset_flag = 0xFF;
  2035     09E6  30FF               	movlw	255
  2036     09E7  1283               	bcf	3,5	;RP0=0, select bank0
  2037     09E8  1303               	bcf	3,6	;RP1=0, select bank0
  2038     09E9  00ED               	movwf	_reset_flag
  2039     09EA                     l3817:
  2040                           
  2041                           ;Washing_Machine_Function_def.c: 61:     if (key == 0x37) {
  2042     09EA  3037               	movlw	55
  2043     09EB  0627               	xorwf	water_level_screen@key,w
  2044     09EC  1D03               	btfss	3,2
  2045     09ED  29EF               	goto	u5051
  2046     09EE  29F0               	goto	u5050
  2047     09EF                     u5051:
  2048     09EF  2A09               	goto	l3821
  2049     09F0                     u5050:
  2050     09F0                     l3819:
  2051                           
  2052                           ;Washing_Machine_Function_def.c: 62:         level = (level + 1) % 5;
  2053     09F0  3005               	movlw	5
  2054     09F1  00F2               	movwf	___awmod@divisor
  2055     09F2  3000               	movlw	0
  2056     09F3  00F3               	movwf	___awmod@divisor+1
  2057     09F4  0869               	movf	_level,w
  2058     09F5  3E01               	addlw	1
  2059     09F6  00F4               	movwf	___awmod@dividend
  2060     09F7  3000               	movlw	0
  2061     09F8  1803               	skipnc
  2062     09F9  3001               	movlw	1
  2063     09FA  00F5               	movwf	___awmod@dividend+1
  2064     09FB  160A  118A  26CE  120A  158A  	fcall	___awmod
  2065     0A00  0872               	movf	?___awmod,w
  2066     0A01  1283               	bcf	3,5	;RP0=0, select bank0
  2067     0A02  1303               	bcf	3,6	;RP1=0, select bank0
  2068     0A03  00E9               	movwf	_level
  2069                           
  2070                           ;Washing_Machine_Function_def.c: 63:         clear_screen();
  2071     0A04  160A  118A  24D1  120A  158A  	fcall	_clear_screen
  2072     0A09                     l3821:
  2073                           
  2074                           ;Washing_Machine_Function_def.c: 66:     clcd_print("Water_Level:", (0x80 + 0));
  2075     0A09  305D               	movlw	low (STR_27| (0+32768))
  2076     0A0A  1283               	bcf	3,5	;RP0=0, select bank0
  2077     0A0B  1303               	bcf	3,6	;RP1=0, select bank0
  2078     0A0C  00A0               	movwf	clcd_print@str
  2079     0A0D  3090               	movlw	high (STR_27| (0+32768))
  2080     0A0E  00A1               	movwf	clcd_print@str+1
  2081     0A0F  3080               	movlw	128
  2082     0A10  00A2               	movwf	clcd_print@addr
  2083     0A11  160A  118A  25A6  120A  158A  	fcall	_clcd_print
  2084     0A16                     l3823:
  2085                           
  2086                           ;Washing_Machine_Function_def.c: 67:     clcd_putch('*', (0xC0 + 0));
  2087     0A16  30C0               	movlw	192
  2088     0A17  00F8               	movwf	clcd_putch@addr
  2089     0A18  302A               	movlw	42
  2090     0A19  160A  118A  2508  120A  158A  	fcall	_clcd_putch
  2091                           
  2092                           ;Washing_Machine_Function_def.c: 68:     clcd_print(water_level[level], (0xC0 + 2));
  2093     0A1E  1283               	bcf	3,5	;RP0=0, select bank0
  2094     0A1F  1303               	bcf	3,6	;RP1=0, select bank0
  2095     0A20  0869               	movf	_level,w
  2096     0A21  00A5               	movwf	??_water_level_screen
  2097     0A22  0725               	addwf	??_water_level_screen,w
  2098     0A23  3EB8               	addlw	(low (_water_level| 0))& (0+255)
  2099     0A24  0084               	movwf	4
  2100     0A25  1383               	bcf	3,7	;select IRP bank1
  2101     0A26  0800               	movf	0,w
  2102     0A27  00A0               	movwf	clcd_print@str
  2103     0A28  0A84               	incf	4,f
  2104     0A29  0800               	movf	0,w
  2105     0A2A  0384               	decf	4,f
  2106     0A2B  00A1               	movwf	clcd_print@str+1
  2107     0A2C  30C2               	movlw	194
  2108     0A2D  00A2               	movwf	clcd_print@addr
  2109     0A2E  160A  118A  25A6  120A  158A  	fcall	_clcd_print
  2110                           
  2111                           ;Washing_Machine_Function_def.c: 69:     clcd_print(water_level[(level + 1) % 5], (0x90 
      +                          + 2));
  2112     0A33  3005               	movlw	5
  2113     0A34  00F2               	movwf	___awmod@divisor
  2114     0A35  3000               	movlw	0
  2115     0A36  00F3               	movwf	___awmod@divisor+1
  2116     0A37  1283               	bcf	3,5	;RP0=0, select bank0
  2117     0A38  1303               	bcf	3,6	;RP1=0, select bank0
  2118     0A39  0869               	movf	_level,w
  2119     0A3A  3E01               	addlw	1
  2120     0A3B  00F4               	movwf	___awmod@dividend
  2121     0A3C  3000               	movlw	0
  2122     0A3D  1803               	skipnc
  2123     0A3E  3001               	movlw	1
  2124     0A3F  00F5               	movwf	___awmod@dividend+1
  2125     0A40  160A  118A  26CE  120A  158A  	fcall	___awmod
  2126     0A45  0872               	movf	?___awmod,w
  2127     0A46  1283               	bcf	3,5	;RP0=0, select bank0
  2128     0A47  1303               	bcf	3,6	;RP1=0, select bank0
  2129     0A48  00A5               	movwf	??_water_level_screen
  2130     0A49  0725               	addwf	??_water_level_screen,w
  2131     0A4A  3EB8               	addlw	(low (_water_level| 0))& (0+255)
  2132     0A4B  0084               	movwf	4
  2133     0A4C  1383               	bcf	3,7	;select IRP bank1
  2134     0A4D  0800               	movf	0,w
  2135     0A4E  00A0               	movwf	clcd_print@str
  2136     0A4F  0A84               	incf	4,f
  2137     0A50  0800               	movf	0,w
  2138     0A51  0384               	decf	4,f
  2139     0A52  00A1               	movwf	clcd_print@str+1
  2140     0A53  3092               	movlw	146
  2141     0A54  00A2               	movwf	clcd_print@addr
  2142     0A55  160A  118A  25A6  120A  158A  	fcall	_clcd_print
  2143                           
  2144                           ;Washing_Machine_Function_def.c: 70:     clcd_print(water_level[(level + 2) % 5], (0xD0 
      +                          + 2));
  2145     0A5A  3005               	movlw	5
  2146     0A5B  00F2               	movwf	___awmod@divisor
  2147     0A5C  3000               	movlw	0
  2148     0A5D  00F3               	movwf	___awmod@divisor+1
  2149     0A5E  1283               	bcf	3,5	;RP0=0, select bank0
  2150     0A5F  1303               	bcf	3,6	;RP1=0, select bank0
  2151     0A60  0869               	movf	_level,w
  2152     0A61  3E02               	addlw	2
  2153     0A62  00F4               	movwf	___awmod@dividend
  2154     0A63  3000               	movlw	0
  2155     0A64  1803               	skipnc
  2156     0A65  3001               	movlw	1
  2157     0A66  00F5               	movwf	___awmod@dividend+1
  2158     0A67  160A  118A  26CE  120A  158A  	fcall	___awmod
  2159     0A6C  0872               	movf	?___awmod,w
  2160     0A6D  1283               	bcf	3,5	;RP0=0, select bank0
  2161     0A6E  1303               	bcf	3,6	;RP1=0, select bank0
  2162     0A6F  00A5               	movwf	??_water_level_screen
  2163     0A70  0725               	addwf	??_water_level_screen,w
  2164     0A71  3EB8               	addlw	(low (_water_level| 0))& (0+255)
  2165     0A72  0084               	movwf	4
  2166     0A73  1383               	bcf	3,7	;select IRP bank1
  2167     0A74  0800               	movf	0,w
  2168     0A75  00A0               	movwf	clcd_print@str
  2169     0A76  0A84               	incf	4,f
  2170     0A77  0800               	movf	0,w
  2171     0A78  0384               	decf	4,f
  2172     0A79  00A1               	movwf	clcd_print@str+1
  2173     0A7A  30D2               	movlw	210
  2174     0A7B  00A2               	movwf	clcd_print@addr
  2175     0A7C  160A  118A  25A6  120A  158A  	fcall	_clcd_print
  2176     0A81                     l224:
  2177     0A81  0008               	return
  2178     0A82                     __end_of_water_level_screen:
  2179                           
  2180                           	psect	text2
  2181     0899                     __ptext2:	
  2182 ;; *************** function _washing_program_display *****************
  2183 ;; Defined at:
  2184 ;;		line 33 in file "Washing_Machine_Function_def.c"
  2185 ;; Parameters:    Size  Location     Type
  2186 ;;  key             1    wreg     unsigned char 
  2187 ;; Auto vars:     Size  Location     Type
  2188 ;;  key             1    7[BANK0 ] unsigned char 
  2189 ;; Return value:  Size  Location     Type
  2190 ;;                  1    wreg      void 
  2191 ;; Registers used:
  2192 ;;		wreg, fsr0l, fsr0h, status,2, status,0, btemp+1, pclath, cstack
  2193 ;; Tracked objects:
  2194 ;;		On entry : 0/0
  2195 ;;		On exit  : 0/0
  2196 ;;		Unchanged: 0/0
  2197 ;; Data sizes:     COMMON   BANK0   BANK1   BANK3   BANK2
  2198 ;;      Params:         0       0       0       0       0
  2199 ;;      Locals:         0       1       0       0       0
  2200 ;;      Temps:          0       2       0       0       0
  2201 ;;      Totals:         0       3       0       0       0
  2202 ;;Total ram usage:        3 bytes
  2203 ;; Hardware stack levels used: 1
  2204 ;; Hardware stack levels required when called: 3
  2205 ;; This function calls:
  2206 ;;		___awmod
  2207 ;;		_clcd_print
  2208 ;;		_clcd_putch
  2209 ;;		_clear_screen
  2210 ;; This function is called by:
  2211 ;;		_main
  2212 ;; This function uses a non-reentrant model
  2213 ;;
  2214                           
  2215     0899                     _washing_program_display:	
  2216                           ;psect for function _washing_program_display
  2217                           
  2218                           
  2219                           ;incstack = 0
  2220                           ; Regs used in _washing_program_display: [wreg-fsr0h+status,2+status,0+btemp+1+pclath+cs
      +                          tack]
  2221                           ;washing_program_display@key stored from wreg
  2222     0899  1283               	bcf	3,5	;RP0=0, select bank0
  2223     089A  1303               	bcf	3,6	;RP1=0, select bank0
  2224     089B  00A7               	movwf	washing_program_display@key
  2225     089C                     l3787:
  2226                           
  2227                           ;Washing_Machine_Function_def.c: 34:     if (reset_flag == 0x11) {
  2228     089C  3011               	movlw	17
  2229     089D  066D               	xorwf	_reset_flag,w
  2230     089E  1D03               	btfss	3,2
  2231     089F  28A1               	goto	u5011
  2232     08A0  28A2               	goto	u5010
  2233     08A1                     u5011:
  2234     08A1  28AB               	goto	l3793
  2235     08A2                     u5010:
  2236     08A2                     l3789:
  2237                           
  2238                           ;Washing_Machine_Function_def.c: 35:         clear_screen();
  2239     08A2  160A  118A  24D1  120A  158A  	fcall	_clear_screen
  2240     08A7                     l3791:
  2241                           
  2242                           ;Washing_Machine_Function_def.c: 36:         reset_flag = 0xFF;
  2243     08A7  30FF               	movlw	255
  2244     08A8  1283               	bcf	3,5	;RP0=0, select bank0
  2245     08A9  1303               	bcf	3,6	;RP1=0, select bank0
  2246     08AA  00ED               	movwf	_reset_flag
  2247     08AB                     l3793:
  2248                           
  2249                           ;Washing_Machine_Function_def.c: 39:     if (key == 0x37) {
  2250     08AB  3037               	movlw	55
  2251     08AC  0627               	xorwf	washing_program_display@key,w
  2252     08AD  1D03               	btfss	3,2
  2253     08AE  28B0               	goto	u5021
  2254     08AF  28B1               	goto	u5020
  2255     08B0                     u5021:
  2256     08B0  28BF               	goto	l3801
  2257     08B1                     u5020:
  2258     08B1                     l3795:
  2259                           
  2260                           ;Washing_Machine_Function_def.c: 40:         program_no++;
  2261     08B1  3001               	movlw	1
  2262     08B2  07EA               	addwf	_program_no,f
  2263                           
  2264                           ;Washing_Machine_Function_def.c: 41:         if (program_no == 12) {
  2265     08B3  300C               	movlw	12
  2266     08B4  066A               	xorwf	_program_no,w
  2267     08B5  1D03               	btfss	3,2
  2268     08B6  28B8               	goto	u5031
  2269     08B7  28B9               	goto	u5030
  2270     08B8                     u5031:
  2271     08B8  28BA               	goto	l3799
  2272     08B9                     u5030:
  2273     08B9                     l3797:
  2274                           
  2275                           ;Washing_Machine_Function_def.c: 42:             program_no = 0;
  2276     08B9  01EA               	clrf	_program_no
  2277     08BA                     l3799:
  2278                           
  2279                           ;Washing_Machine_Function_def.c: 44:         clear_screen();
  2280     08BA  160A  118A  24D1  120A  158A  	fcall	_clear_screen
  2281     08BF                     l3801:
  2282                           
  2283                           ;Washing_Machine_Function_def.c: 47:     clcd_print("Washing Programs", (0x80 + 0));
  2284     08BF  3011               	movlw	low (STR_26| (0+32768))
  2285     08C0  1283               	bcf	3,5	;RP0=0, select bank0
  2286     08C1  1303               	bcf	3,6	;RP1=0, select bank0
  2287     08C2  00A0               	movwf	clcd_print@str
  2288     08C3  3090               	movlw	high (STR_26| (0+32768))
  2289     08C4  00A1               	movwf	clcd_print@str+1
  2290     08C5  3080               	movlw	128
  2291     08C6  00A2               	movwf	clcd_print@addr
  2292     08C7  160A  118A  25A6  120A  158A  	fcall	_clcd_print
  2293     08CC                     l3803:
  2294                           
  2295                           ;Washing_Machine_Function_def.c: 48:     clcd_putch('*', (0xC0 + 0));
  2296     08CC  30C0               	movlw	192
  2297     08CD  00F8               	movwf	clcd_putch@addr
  2298     08CE  302A               	movlw	42
  2299     08CF  160A  118A  2508  120A  158A  	fcall	_clcd_putch
  2300     08D4                     l3805:
  2301                           
  2302                           ;Washing_Machine_Function_def.c: 50:     clcd_print(washing_program[program_no], (0xC0 +
      +                           1));
  2303     08D4  1283               	bcf	3,5	;RP0=0, select bank0
  2304     08D5  1303               	bcf	3,6	;RP1=0, select bank0
  2305     08D6  086A               	movf	_program_no,w
  2306     08D7  00A5               	movwf	??_washing_program_display
  2307     08D8  0725               	addwf	??_washing_program_display,w
  2308     08D9  3EA0               	addlw	(low (_washing_program| 0))& (0+255)
  2309     08DA  0084               	movwf	4
  2310     08DB  1383               	bcf	3,7	;select IRP bank1
  2311     08DC  0800               	movf	0,w
  2312     08DD  00A0               	movwf	clcd_print@str
  2313     08DE  0A84               	incf	4,f
  2314     08DF  0800               	movf	0,w
  2315     08E0  0384               	decf	4,f
  2316     08E1  00A1               	movwf	clcd_print@str+1
  2317     08E2  30C1               	movlw	193
  2318     08E3  00A2               	movwf	clcd_print@addr
  2319     08E4  160A  118A  25A6  120A  158A  	fcall	_clcd_print
  2320     08E9                     l3807:
  2321                           
  2322                           ;Washing_Machine_Function_def.c: 51:     clcd_print(washing_program[(program_no + 1) % 1
      +                          2], (0x90 + 1));
  2323     08E9  300C               	movlw	12
  2324     08EA  00F2               	movwf	___awmod@divisor
  2325     08EB  3000               	movlw	0
  2326     08EC  00F3               	movwf	___awmod@divisor+1
  2327     08ED  1283               	bcf	3,5	;RP0=0, select bank0
  2328     08EE  1303               	bcf	3,6	;RP1=0, select bank0
  2329     08EF  086A               	movf	_program_no,w
  2330     08F0  3E01               	addlw	1
  2331     08F1  00F4               	movwf	___awmod@dividend
  2332     08F2  3000               	movlw	0
  2333     08F3  1803               	skipnc
  2334     08F4  3001               	movlw	1
  2335     08F5  00F5               	movwf	___awmod@dividend+1
  2336     08F6  160A  118A  26CE  120A  158A  	fcall	___awmod
  2337     08FB  0872               	movf	?___awmod,w
  2338     08FC  1283               	bcf	3,5	;RP0=0, select bank0
  2339     08FD  1303               	bcf	3,6	;RP1=0, select bank0
  2340     08FE  00A5               	movwf	??_washing_program_display
  2341     08FF  0725               	addwf	??_washing_program_display,w
  2342     0900  3EA0               	addlw	(low (_washing_program| 0))& (0+255)
  2343     0901  0084               	movwf	4
  2344     0902  1383               	bcf	3,7	;select IRP bank1
  2345     0903  0800               	movf	0,w
  2346     0904  00A0               	movwf	clcd_print@str
  2347     0905  0A84               	incf	4,f
  2348     0906  0800               	movf	0,w
  2349     0907  0384               	decf	4,f
  2350     0908  00A1               	movwf	clcd_print@str+1
  2351     0909  3091               	movlw	145
  2352     090A  00A2               	movwf	clcd_print@addr
  2353     090B  160A  118A  25A6  120A  158A  	fcall	_clcd_print
  2354     0910                     l3809:
  2355                           
  2356                           ;Washing_Machine_Function_def.c: 52:     clcd_print(washing_program[(program_no + 2) % 1
      +                          2], (0xD0 + 1));
  2357     0910  300C               	movlw	12
  2358     0911  00F2               	movwf	___awmod@divisor
  2359     0912  3000               	movlw	0
  2360     0913  00F3               	movwf	___awmod@divisor+1
  2361     0914  1283               	bcf	3,5	;RP0=0, select bank0
  2362     0915  1303               	bcf	3,6	;RP1=0, select bank0
  2363     0916  086A               	movf	_program_no,w
  2364     0917  3E02               	addlw	2
  2365     0918  00F4               	movwf	___awmod@dividend
  2366     0919  3000               	movlw	0
  2367     091A  1803               	skipnc
  2368     091B  3001               	movlw	1
  2369     091C  00F5               	movwf	___awmod@dividend+1
  2370     091D  160A  118A  26CE  120A  158A  	fcall	___awmod
  2371     0922  0872               	movf	?___awmod,w
  2372     0923  1283               	bcf	3,5	;RP0=0, select bank0
  2373     0924  1303               	bcf	3,6	;RP1=0, select bank0
  2374     0925  00A5               	movwf	??_washing_program_display
  2375     0926  0725               	addwf	??_washing_program_display,w
  2376     0927  3EA0               	addlw	(low (_washing_program| 0))& (0+255)
  2377     0928  0084               	movwf	4
  2378     0929  1383               	bcf	3,7	;select IRP bank1
  2379     092A  0800               	movf	0,w
  2380     092B  00A0               	movwf	clcd_print@str
  2381     092C  0A84               	incf	4,f
  2382     092D  0800               	movf	0,w
  2383     092E  0384               	decf	4,f
  2384     092F  00A1               	movwf	clcd_print@str+1
  2385     0930  30D1               	movlw	209
  2386     0931  00A2               	movwf	clcd_print@addr
  2387     0932  160A  118A  25A6  120A  158A  	fcall	_clcd_print
  2388     0937                     l219:
  2389     0937  0008               	return
  2390     0938                     __end_of_washing_program_display:
  2391                           
  2392                           	psect	text3
  2393     0C60                     __ptext3:	
  2394 ;; *************** function _set_time *****************
  2395 ;; Defined at:
  2396 ;;		line 165 in file "Washing_Machine_Function_def.c"
  2397 ;; Parameters:    Size  Location     Type
  2398 ;;		None
  2399 ;; Auto vars:     Size  Location     Type
  2400 ;;		None
  2401 ;; Return value:  Size  Location     Type
  2402 ;;                  1    wreg      void 
  2403 ;; Registers used:
  2404 ;;		wreg, fsr0l, fsr0h, status,2, status,0
  2405 ;; Tracked objects:
  2406 ;;		On entry : 0/0
  2407 ;;		On exit  : 0/0
  2408 ;;		Unchanged: 0/0
  2409 ;; Data sizes:     COMMON   BANK0   BANK1   BANK3   BANK2
  2410 ;;      Params:         0       0       0       0       0
  2411 ;;      Locals:         0       0       0       0       0
  2412 ;;      Temps:          0       0       0       0       0
  2413 ;;      Totals:         0       0       0       0       0
  2414 ;;Total ram usage:        0 bytes
  2415 ;; Hardware stack levels used: 1
  2416 ;; Hardware stack levels required when called: 1
  2417 ;; This function calls:
  2418 ;;		Nothing
  2419 ;; This function is called by:
  2420 ;;		_main
  2421 ;; This function uses a non-reentrant model
  2422 ;;
  2423                           
  2424     0C60                     _set_time:	
  2425                           ;psect for function _set_time
  2426                           
  2427     0C60                     l3661:	
  2428                           ;incstack = 0
  2429                           ; Regs used in _set_time: [wreg-fsr0h+status,2+status,0]
  2430                           
  2431                           
  2432                           ;Washing_Machine_Function_def.c: 167:     switch (program_no) {
  2433     0C60  2D7F               	goto	l3785
  2434     0C61                     l3663:
  2435                           
  2436                           ;Washing_Machine_Function_def.c: 171:                     min = 0;
  2437     0C61  01EB               	clrf	_min
  2438     0C62                     l3665:
  2439                           
  2440                           ;Washing_Machine_Function_def.c: 172:                     sec = 33;
  2441     0C62  3021               	movlw	33
  2442     0C63  00EC               	movwf	_sec
  2443                           
  2444                           ;Washing_Machine_Function_def.c: 173:                     break;
  2445     0C64  2DA7               	goto	l347
  2446     0C65                     l3667:
  2447                           
  2448                           ;Washing_Machine_Function_def.c: 176:                     min = 0;
  2449     0C65  01EB               	clrf	_min
  2450     0C66                     l3669:
  2451                           
  2452                           ;Washing_Machine_Function_def.c: 177:                     sec = 41;
  2453     0C66  3029               	movlw	41
  2454     0C67  00EC               	movwf	_sec
  2455                           
  2456                           ;Washing_Machine_Function_def.c: 178:                     break;
  2457     0C68  2DA7               	goto	l347
  2458     0C69                     l257:	
  2459                           ;Washing_Machine_Function_def.c: 180:                 case 4:
  2460                           
  2461                           
  2462                           ;Washing_Machine_Function_def.c: 181:                     sec = 45;
  2463     0C69  302D               	movlw	45
  2464     0C6A  00EC               	movwf	_sec
  2465                           
  2466                           ;Washing_Machine_Function_def.c: 182:                     break;
  2467     0C6B  2DA7               	goto	l347
  2468     0C6C                     l3673:
  2469     0C6C  0869               	movf	_level,w
  2470                           
  2471                           ; Switch size 1, requested type "simple"
  2472                           ; Number of cases is 5, Range of values is 0 to 4
  2473                           ; switch strategies available:
  2474                           ; Name         Instructions Cycles
  2475                           ; simple_byte           16     9 (average)
  2476                           ; direct_byte           23     8 (fixed)
  2477                           ; jumptable            260     6 (fixed)
  2478                           ;	Chosen strategy is simple_byte
  2479     0C6D  3A00               	xorlw	0	; case 0
  2480     0C6E  1903               	skipnz
  2481     0C6F  2C65               	goto	l3667
  2482     0C70  3A01               	xorlw	1	; case 1
  2483     0C71  1903               	skipnz
  2484     0C72  2C61               	goto	l3663
  2485     0C73  3A03               	xorlw	3	; case 2
  2486     0C74  1903               	skipnz
  2487     0C75  2C65               	goto	l3667
  2488     0C76  3A01               	xorlw	1	; case 3
  2489     0C77  1903               	skipnz
  2490     0C78  2C69               	goto	l257
  2491     0C79  3A07               	xorlw	7	; case 4
  2492     0C7A  1903               	skipnz
  2493     0C7B  2C69               	goto	l257
  2494     0C7C  2DA7               	goto	l347
  2495     0C7D                     l3675:
  2496                           
  2497                           ;Washing_Machine_Function_def.c: 188:                     min = 0;
  2498     0C7D  01EB               	clrf	_min
  2499     0C7E                     l3677:
  2500                           
  2501                           ;Washing_Machine_Function_def.c: 189:                     sec = 43;
  2502     0C7E  302B               	movlw	43
  2503     0C7F  00EC               	movwf	_sec
  2504                           
  2505                           ;Washing_Machine_Function_def.c: 190:                     break;
  2506     0C80  2DA7               	goto	l347
  2507     0C81                     l3679:
  2508                           
  2509                           ;Washing_Machine_Function_def.c: 193:                     min = 0;
  2510     0C81  01EB               	clrf	_min
  2511     0C82                     l3681:
  2512                           
  2513                           ;Washing_Machine_Function_def.c: 194:                     sec = 50;
  2514     0C82  3032               	movlw	50
  2515     0C83  00EC               	movwf	_sec
  2516                           
  2517                           ;Washing_Machine_Function_def.c: 195:                     break;
  2518     0C84  2DA7               	goto	l347
  2519     0C85                     l3683:
  2520                           
  2521                           ;Washing_Machine_Function_def.c: 198:                     min = 0;
  2522     0C85  01EB               	clrf	_min
  2523     0C86                     l3685:
  2524                           
  2525                           ;Washing_Machine_Function_def.c: 199:                     sec = 57;
  2526     0C86  3039               	movlw	57
  2527     0C87  00EC               	movwf	_sec
  2528                           
  2529                           ;Washing_Machine_Function_def.c: 200:                     break;
  2530     0C88  2DA7               	goto	l347
  2531     0C89                     l3689:
  2532     0C89  0869               	movf	_level,w
  2533                           
  2534                           ; Switch size 1, requested type "simple"
  2535                           ; Number of cases is 5, Range of values is 0 to 4
  2536                           ; switch strategies available:
  2537                           ; Name         Instructions Cycles
  2538                           ; simple_byte           16     9 (average)
  2539                           ; direct_byte           23     8 (fixed)
  2540                           ; jumptable            260     6 (fixed)
  2541                           ;	Chosen strategy is simple_byte
  2542     0C8A  3A00               	xorlw	0	; case 0
  2543     0C8B  1903               	skipnz
  2544     0C8C  2C81               	goto	l3679
  2545     0C8D  3A01               	xorlw	1	; case 1
  2546     0C8E  1903               	skipnz
  2547     0C8F  2C7D               	goto	l3675
  2548     0C90  3A03               	xorlw	3	; case 2
  2549     0C91  1903               	skipnz
  2550     0C92  2C81               	goto	l3679
  2551     0C93  3A01               	xorlw	1	; case 3
  2552     0C94  1903               	skipnz
  2553     0C95  2C85               	goto	l3683
  2554     0C96  3A07               	xorlw	7	; case 4
  2555     0C97  1903               	skipnz
  2556     0C98  2C85               	goto	l3683
  2557     0C99  2DA7               	goto	l347
  2558     0C9A                     l3691:
  2559                           
  2560                           ;Washing_Machine_Function_def.c: 209:                     min = 0;
  2561     0C9A  01EB               	clrf	_min
  2562     0C9B                     l3693:
  2563                           
  2564                           ;Washing_Machine_Function_def.c: 210:                     sec = 26;
  2565     0C9B  301A               	movlw	26
  2566     0C9C  00EC               	movwf	_sec
  2567                           
  2568                           ;Washing_Machine_Function_def.c: 211:                     break;
  2569     0C9D  2DA7               	goto	l347
  2570     0C9E                     l3695:
  2571                           
  2572                           ;Washing_Machine_Function_def.c: 214:                     min = 0;
  2573     0C9E  01EB               	clrf	_min
  2574     0C9F                     l3697:
  2575                           
  2576                           ;Washing_Machine_Function_def.c: 215:                     sec = 31;
  2577     0C9F  301F               	movlw	31
  2578     0CA0  00EC               	movwf	_sec
  2579                           
  2580                           ;Washing_Machine_Function_def.c: 216:                     break;
  2581     0CA1  2DA7               	goto	l347
  2582     0CA2                     l3701:
  2583     0CA2  0869               	movf	_level,w
  2584                           
  2585                           ; Switch size 1, requested type "simple"
  2586                           ; Number of cases is 5, Range of values is 0 to 4
  2587                           ; switch strategies available:
  2588                           ; Name         Instructions Cycles
  2589                           ; simple_byte           16     9 (average)
  2590                           ; direct_byte           23     8 (fixed)
  2591                           ; jumptable            260     6 (fixed)
  2592                           ;	Chosen strategy is simple_byte
  2593     0CA3  3A00               	xorlw	0	; case 0
  2594     0CA4  1903               	skipnz
  2595     0CA5  2C9A               	goto	l3691
  2596     0CA6  3A01               	xorlw	1	; case 1
  2597     0CA7  1903               	skipnz
  2598     0CA8  2C9A               	goto	l3691
  2599     0CA9  3A03               	xorlw	3	; case 2
  2600     0CAA  1903               	skipnz
  2601     0CAB  2C9A               	goto	l3691
  2602     0CAC  3A01               	xorlw	1	; case 3
  2603     0CAD  1903               	skipnz
  2604     0CAE  2C9E               	goto	l3695
  2605     0CAF  3A07               	xorlw	7	; case 4
  2606     0CB0  1903               	skipnz
  2607     0CB1  2C9E               	goto	l3695
  2608     0CB2  2DA7               	goto	l347
  2609     0CB3                     l279:	
  2610                           ;Washing_Machine_Function_def.c: 225:                 case 2:
  2611                           
  2612     0CB3                     l281:	
  2613                           ;Washing_Machine_Function_def.c: 227:                 case 4:
  2614                           
  2615                           
  2616                           ;Washing_Machine_Function_def.c: 228:                     min = 1;
  2617     0CB3  3001               	movlw	1
  2618     0CB4  00EB               	movwf	_min
  2619                           
  2620                           ;Washing_Machine_Function_def.c: 229:                     sec = 16;
  2621     0CB5  3010               	movlw	16
  2622     0CB6  00EC               	movwf	_sec
  2623                           
  2624                           ;Washing_Machine_Function_def.c: 230:                     break;
  2625     0CB7  2DA7               	goto	l347
  2626     0CB8                     l3705:
  2627     0CB8  0869               	movf	_level,w
  2628                           
  2629                           ; Switch size 1, requested type "simple"
  2630                           ; Number of cases is 5, Range of values is 0 to 4
  2631                           ; switch strategies available:
  2632                           ; Name         Instructions Cycles
  2633                           ; simple_byte           16     9 (average)
  2634                           ; direct_byte           23     8 (fixed)
  2635                           ; jumptable            260     6 (fixed)
  2636                           ;	Chosen strategy is simple_byte
  2637     0CB9  3A00               	xorlw	0	; case 0
  2638     0CBA  1903               	skipnz
  2639     0CBB  2CB3               	goto	l279
  2640     0CBC  3A01               	xorlw	1	; case 1
  2641     0CBD  1903               	skipnz
  2642     0CBE  2CB3               	goto	l281
  2643     0CBF  3A03               	xorlw	3	; case 2
  2644     0CC0  1903               	skipnz
  2645     0CC1  2CB3               	goto	l281
  2646     0CC2  3A01               	xorlw	1	; case 3
  2647     0CC3  1903               	skipnz
  2648     0CC4  2CB3               	goto	l281
  2649     0CC5  3A07               	xorlw	7	; case 4
  2650     0CC6  1903               	skipnz
  2651     0CC7  2CB3               	goto	l281
  2652     0CC8  2DA7               	goto	l347
  2653     0CC9                     l287:	
  2654                           ;Washing_Machine_Function_def.c: 238:                 case 2:
  2655                           
  2656     0CC9                     l289:	
  2657                           ;Washing_Machine_Function_def.c: 240:                 case 4:
  2658                           
  2659                           
  2660                           ;Washing_Machine_Function_def.c: 241:                     min = 1;
  2661     0CC9  3001               	movlw	1
  2662     0CCA  00EB               	movwf	_min
  2663                           
  2664                           ;Washing_Machine_Function_def.c: 242:                     sec = 36;
  2665     0CCB  3024               	movlw	36
  2666     0CCC  00EC               	movwf	_sec
  2667                           
  2668                           ;Washing_Machine_Function_def.c: 243:                     break;
  2669     0CCD  2DA7               	goto	l347
  2670     0CCE                     l3709:
  2671     0CCE  0869               	movf	_level,w
  2672                           
  2673                           ; Switch size 1, requested type "simple"
  2674                           ; Number of cases is 5, Range of values is 0 to 4
  2675                           ; switch strategies available:
  2676                           ; Name         Instructions Cycles
  2677                           ; simple_byte           16     9 (average)
  2678                           ; direct_byte           23     8 (fixed)
  2679                           ; jumptable            260     6 (fixed)
  2680                           ;	Chosen strategy is simple_byte
  2681     0CCF  3A00               	xorlw	0	; case 0
  2682     0CD0  1903               	skipnz
  2683     0CD1  2CC9               	goto	l287
  2684     0CD2  3A01               	xorlw	1	; case 1
  2685     0CD3  1903               	skipnz
  2686     0CD4  2CC9               	goto	l289
  2687     0CD5  3A03               	xorlw	3	; case 2
  2688     0CD6  1903               	skipnz
  2689     0CD7  2CC9               	goto	l289
  2690     0CD8  3A01               	xorlw	1	; case 3
  2691     0CD9  1903               	skipnz
  2692     0CDA  2CC9               	goto	l289
  2693     0CDB  3A07               	xorlw	7	; case 4
  2694     0CDC  1903               	skipnz
  2695     0CDD  2CC9               	goto	l289
  2696     0CDE  2DA7               	goto	l347
  2697     0CDF                     l3711:
  2698                           
  2699                           ;Washing_Machine_Function_def.c: 251:                     min = 0;
  2700     0CDF  01EB               	clrf	_min
  2701     0CE0                     l3713:
  2702                           
  2703                           ;Washing_Machine_Function_def.c: 252:                     sec = 31;
  2704     0CE0  301F               	movlw	31
  2705     0CE1  00EC               	movwf	_sec
  2706     0CE2                     l297:	
  2707                           ;Washing_Machine_Function_def.c: 254:                 case 4:
  2708                           
  2709                           
  2710                           ;Washing_Machine_Function_def.c: 255:                     min = 0;
  2711     0CE2  01EB               	clrf	_min
  2712     0CE3                     l3715:
  2713                           
  2714                           ;Washing_Machine_Function_def.c: 256:                     sec = 36;
  2715     0CE3  3024               	movlw	36
  2716     0CE4  00EC               	movwf	_sec
  2717                           
  2718                           ;Washing_Machine_Function_def.c: 257:                     break;
  2719     0CE5  2DA7               	goto	l347
  2720     0CE6                     l3719:
  2721     0CE6  0869               	movf	_level,w
  2722                           
  2723                           ; Switch size 1, requested type "simple"
  2724                           ; Number of cases is 5, Range of values is 0 to 4
  2725                           ; switch strategies available:
  2726                           ; Name         Instructions Cycles
  2727                           ; simple_byte           16     9 (average)
  2728                           ; direct_byte           23     8 (fixed)
  2729                           ; jumptable            260     6 (fixed)
  2730                           ;	Chosen strategy is simple_byte
  2731     0CE7  3A00               	xorlw	0	; case 0
  2732     0CE8  1903               	skipnz
  2733     0CE9  2CDF               	goto	l3711
  2734     0CEA  3A01               	xorlw	1	; case 1
  2735     0CEB  1903               	skipnz
  2736     0CEC  2CDF               	goto	l3711
  2737     0CED  3A03               	xorlw	3	; case 2
  2738     0CEE  1903               	skipnz
  2739     0CEF  2CDF               	goto	l3711
  2740     0CF0  3A01               	xorlw	1	; case 3
  2741     0CF1  1903               	skipnz
  2742     0CF2  2CE2               	goto	l297
  2743     0CF3  3A07               	xorlw	7	; case 4
  2744     0CF4  1903               	skipnz
  2745     0CF5  2CE2               	goto	l297
  2746     0CF6  2DA7               	goto	l347
  2747     0CF7                     l304:	
  2748                           ;Washing_Machine_Function_def.c: 265:                 case 3:
  2749                           
  2750     0CF7                     l3721:
  2751                           
  2752                           ;Washing_Machine_Function_def.c: 267:                     min = 0;
  2753     0CF7  01EB               	clrf	_min
  2754     0CF8                     l3723:
  2755                           
  2756                           ;Washing_Machine_Function_def.c: 268:                     sec = 29;
  2757     0CF8  301D               	movlw	29
  2758     0CF9  00EC               	movwf	_sec
  2759                           
  2760                           ;Washing_Machine_Function_def.c: 269:                     break;
  2761     0CFA  2DA7               	goto	l347
  2762     0CFB                     l3727:
  2763     0CFB  0869               	movf	_level,w
  2764                           
  2765                           ; Switch size 1, requested type "simple"
  2766                           ; Number of cases is 5, Range of values is 0 to 4
  2767                           ; switch strategies available:
  2768                           ; Name         Instructions Cycles
  2769                           ; simple_byte           16     9 (average)
  2770                           ; direct_byte           23     8 (fixed)
  2771                           ; jumptable            260     6 (fixed)
  2772                           ;	Chosen strategy is simple_byte
  2773     0CFC  3A00               	xorlw	0	; case 0
  2774     0CFD  1903               	skipnz
  2775     0CFE  2CF7               	goto	l304
  2776     0CFF  3A01               	xorlw	1	; case 1
  2777     0D00  1903               	skipnz
  2778     0D01  2CF7               	goto	l3721
  2779     0D02  3A03               	xorlw	3	; case 2
  2780     0D03  1903               	skipnz
  2781     0D04  2CF7               	goto	l3721
  2782     0D05  3A01               	xorlw	1	; case 3
  2783     0D06  1903               	skipnz
  2784     0D07  2CF7               	goto	l3721
  2785     0D08  3A07               	xorlw	7	; case 4
  2786     0D09  1903               	skipnz
  2787     0D0A  2CF7               	goto	l3721
  2788     0D0B  2DA7               	goto	l347
  2789     0D0C                     l3729:
  2790                           
  2791                           ;Washing_Machine_Function_def.c: 276:                     min = 0;
  2792     0D0C  01EB               	clrf	_min
  2793     0D0D                     l3731:
  2794                           
  2795                           ;Washing_Machine_Function_def.c: 277:                     sec = 53;
  2796     0D0D  3035               	movlw	53
  2797     0D0E  00EC               	movwf	_sec
  2798     0D0F                     l311:	
  2799                           ;Washing_Machine_Function_def.c: 278:                 case 1:
  2800                           
  2801                           
  2802                           ;Washing_Machine_Function_def.c: 279:                     min = 0;
  2803     0D0F  01EB               	clrf	_min
  2804     0D10                     l3733:
  2805                           
  2806                           ;Washing_Machine_Function_def.c: 280:                     sec = 46;
  2807     0D10  302E               	movlw	46
  2808     0D11  00EC               	movwf	_sec
  2809     0D12                     l3735:
  2810                           
  2811                           ;Washing_Machine_Function_def.c: 283:                     min = 1;
  2812     0D12  3001               	movlw	1
  2813     0D13  00EB               	movwf	_min
  2814                           
  2815                           ;Washing_Machine_Function_def.c: 284:                     sec = 0;
  2816     0D14  01EC               	clrf	_sec
  2817                           
  2818                           ;Washing_Machine_Function_def.c: 285:                     break;
  2819     0D15  2DA7               	goto	l347
  2820     0D16                     l3739:
  2821     0D16  0869               	movf	_level,w
  2822                           
  2823                           ; Switch size 1, requested type "simple"
  2824                           ; Number of cases is 5, Range of values is 0 to 4
  2825                           ; switch strategies available:
  2826                           ; Name         Instructions Cycles
  2827                           ; simple_byte           16     9 (average)
  2828                           ; direct_byte           23     8 (fixed)
  2829                           ; jumptable            260     6 (fixed)
  2830                           ;	Chosen strategy is simple_byte
  2831     0D17  3A00               	xorlw	0	; case 0
  2832     0D18  1903               	skipnz
  2833     0D19  2D0C               	goto	l3729
  2834     0D1A  3A01               	xorlw	1	; case 1
  2835     0D1B  1903               	skipnz
  2836     0D1C  2D0F               	goto	l311
  2837     0D1D  3A03               	xorlw	3	; case 2
  2838     0D1E  1903               	skipnz
  2839     0D1F  2D0C               	goto	l3729
  2840     0D20  3A01               	xorlw	1	; case 3
  2841     0D21  1903               	skipnz
  2842     0D22  2D12               	goto	l3735
  2843     0D23  3A07               	xorlw	7	; case 4
  2844     0D24  1903               	skipnz
  2845     0D25  2D12               	goto	l3735
  2846     0D26  2DA7               	goto	l347
  2847     0D27                     l3741:
  2848                           
  2849                           ;Washing_Machine_Function_def.c: 291:                     min = 0;
  2850     0D27  01EB               	clrf	_min
  2851     0D28                     l3743:
  2852                           
  2853                           ;Washing_Machine_Function_def.c: 292:                     sec = 18;
  2854     0D28  3012               	movlw	18
  2855     0D29  00EC               	movwf	_sec
  2856     0D2A                     l321:	
  2857                           ;Washing_Machine_Function_def.c: 296:                 case 4:
  2858                           
  2859                           
  2860                           ;Washing_Machine_Function_def.c: 297:                     min = 0;
  2861     0D2A  01EB               	clrf	_min
  2862     0D2B                     l3745:
  2863                           
  2864                           ;Washing_Machine_Function_def.c: 298:                     sec = 20;
  2865     0D2B  3014               	movlw	20
  2866     0D2C  00EC               	movwf	_sec
  2867                           
  2868                           ;Washing_Machine_Function_def.c: 299:                     break;
  2869     0D2D  2DA7               	goto	l347
  2870     0D2E                     l3749:
  2871     0D2E  0869               	movf	_level,w
  2872                           
  2873                           ; Switch size 1, requested type "simple"
  2874                           ; Number of cases is 5, Range of values is 0 to 4
  2875                           ; switch strategies available:
  2876                           ; Name         Instructions Cycles
  2877                           ; simple_byte           16     9 (average)
  2878                           ; direct_byte           23     8 (fixed)
  2879                           ; jumptable            260     6 (fixed)
  2880                           ;	Chosen strategy is simple_byte
  2881     0D2F  3A00               	xorlw	0	; case 0
  2882     0D30  1903               	skipnz
  2883     0D31  2D2A               	goto	l321
  2884     0D32  3A01               	xorlw	1	; case 1
  2885     0D33  1903               	skipnz
  2886     0D34  2D27               	goto	l3741
  2887     0D35  3A03               	xorlw	3	; case 2
  2888     0D36  1903               	skipnz
  2889     0D37  2D2A               	goto	l321
  2890     0D38  3A01               	xorlw	1	; case 3
  2891     0D39  1903               	skipnz
  2892     0D3A  2D2A               	goto	l321
  2893     0D3B  3A07               	xorlw	7	; case 4
  2894     0D3C  1903               	skipnz
  2895     0D3D  2D2A               	goto	l321
  2896     0D3E  2DA7               	goto	l347
  2897     0D3F                     l328:	
  2898                           ;Washing_Machine_Function_def.c: 307:                 case 3:
  2899                           
  2900     0D3F                     l3751:
  2901                           
  2902                           ;Washing_Machine_Function_def.c: 309:                     min = 0;
  2903     0D3F  01EB               	clrf	_min
  2904     0D40                     l3753:
  2905                           
  2906                           ;Washing_Machine_Function_def.c: 310:                     sec = 6;
  2907     0D40  3006               	movlw	6
  2908     0D41  00EC               	movwf	_sec
  2909                           
  2910                           ;Washing_Machine_Function_def.c: 311:                     break;
  2911     0D42  2DA7               	goto	l347
  2912     0D43                     l3757:
  2913     0D43  0869               	movf	_level,w
  2914                           
  2915                           ; Switch size 1, requested type "simple"
  2916                           ; Number of cases is 5, Range of values is 0 to 4
  2917                           ; switch strategies available:
  2918                           ; Name         Instructions Cycles
  2919                           ; simple_byte           16     9 (average)
  2920                           ; direct_byte           23     8 (fixed)
  2921                           ; jumptable            260     6 (fixed)
  2922                           ;	Chosen strategy is simple_byte
  2923     0D44  3A00               	xorlw	0	; case 0
  2924     0D45  1903               	skipnz
  2925     0D46  2D3F               	goto	l328
  2926     0D47  3A01               	xorlw	1	; case 1
  2927     0D48  1903               	skipnz
  2928     0D49  2D3F               	goto	l3751
  2929     0D4A  3A03               	xorlw	3	; case 2
  2930     0D4B  1903               	skipnz
  2931     0D4C  2D3F               	goto	l3751
  2932     0D4D  3A01               	xorlw	1	; case 3
  2933     0D4E  1903               	skipnz
  2934     0D4F  2D3F               	goto	l3751
  2935     0D50  3A07               	xorlw	7	; case 4
  2936     0D51  1903               	skipnz
  2937     0D52  2D3F               	goto	l3751
  2938     0D53  2DA7               	goto	l347
  2939     0D54                     l3759:
  2940                           
  2941                           ;Washing_Machine_Function_def.c: 318:                     min = 0;
  2942     0D54  01EB               	clrf	_min
  2943     0D55                     l3761:
  2944                           
  2945                           ;Washing_Machine_Function_def.c: 319:                     sec = 21;
  2946     0D55  3015               	movlw	21
  2947     0D56  00EC               	movwf	_sec
  2948                           
  2949                           ;Washing_Machine_Function_def.c: 320:                     break;
  2950     0D57  2DA7               	goto	l347
  2951     0D58                     l3763:
  2952                           
  2953                           ;Washing_Machine_Function_def.c: 322:                     min = 0;
  2954     0D58  01EB               	clrf	_min
  2955     0D59                     l3765:
  2956                           
  2957                           ;Washing_Machine_Function_def.c: 323:                     sec = 16;
  2958     0D59  3010               	movlw	16
  2959     0D5A  00EC               	movwf	_sec
  2960                           
  2961                           ;Washing_Machine_Function_def.c: 324:                     break;
  2962     0D5B  2DA7               	goto	l347
  2963     0D5C                     l3773:
  2964     0D5C  0869               	movf	_level,w
  2965                           
  2966                           ; Switch size 1, requested type "simple"
  2967                           ; Number of cases is 5, Range of values is 0 to 4
  2968                           ; switch strategies available:
  2969                           ; Name         Instructions Cycles
  2970                           ; simple_byte           16     9 (average)
  2971                           ; direct_byte           23     8 (fixed)
  2972                           ; jumptable            260     6 (fixed)
  2973                           ;	Chosen strategy is simple_byte
  2974     0D5D  3A00               	xorlw	0	; case 0
  2975     0D5E  1903               	skipnz
  2976     0D5F  2D54               	goto	l3759
  2977     0D60  3A01               	xorlw	1	; case 1
  2978     0D61  1903               	skipnz
  2979     0D62  2D58               	goto	l3763
  2980     0D63  3A03               	xorlw	3	; case 2
  2981     0D64  1903               	skipnz
  2982     0D65  2D54               	goto	l3759
  2983     0D66  3A01               	xorlw	1	; case 3
  2984     0D67  1903               	skipnz
  2985     0D68  2C9A               	goto	l3691
  2986     0D69  3A07               	xorlw	7	; case 4
  2987     0D6A  1903               	skipnz
  2988     0D6B  2C9A               	goto	l3691
  2989     0D6C  2DA7               	goto	l347
  2990     0D6D                     l344:	
  2991                           ;Washing_Machine_Function_def.c: 337:                 case 3:
  2992                           
  2993     0D6D  2C81               	goto	l3679
  2994     0D6E                     l3781:
  2995     0D6E  0869               	movf	_level,w
  2996                           
  2997                           ; Switch size 1, requested type "simple"
  2998                           ; Number of cases is 5, Range of values is 0 to 4
  2999                           ; switch strategies available:
  3000                           ; Name         Instructions Cycles
  3001                           ; simple_byte           16     9 (average)
  3002                           ; direct_byte           23     8 (fixed)
  3003                           ; jumptable            260     6 (fixed)
  3004                           ;	Chosen strategy is simple_byte
  3005     0D6F  3A00               	xorlw	0	; case 0
  3006     0D70  1903               	skipnz
  3007     0D71  2D6D               	goto	l344
  3008     0D72  3A01               	xorlw	1	; case 1
  3009     0D73  1903               	skipnz
  3010     0D74  2C81               	goto	l3679
  3011     0D75  3A03               	xorlw	3	; case 2
  3012     0D76  1903               	skipnz
  3013     0D77  2C81               	goto	l3679
  3014     0D78  3A01               	xorlw	1	; case 3
  3015     0D79  1903               	skipnz
  3016     0D7A  2C81               	goto	l3679
  3017     0D7B  3A07               	xorlw	7	; case 4
  3018     0D7C  1903               	skipnz
  3019     0D7D  2C81               	goto	l3679
  3020     0D7E  2DA7               	goto	l347
  3021     0D7F                     l3785:
  3022     0D7F  1283               	bcf	3,5	;RP0=0, select bank0
  3023     0D80  1303               	bcf	3,6	;RP1=0, select bank0
  3024     0D81  086A               	movf	_program_no,w
  3025                           
  3026                           ; Switch size 1, requested type "simple"
  3027                           ; Number of cases is 12, Range of values is 0 to 11
  3028                           ; switch strategies available:
  3029                           ; Name         Instructions Cycles
  3030                           ; simple_byte           37    19 (average)
  3031                           ; direct_byte           44     8 (fixed)
  3032                           ; jumptable            260     6 (fixed)
  3033                           ;	Chosen strategy is simple_byte
  3034     0D82  3A00               	xorlw	0	; case 0
  3035     0D83  1903               	skipnz
  3036     0D84  2C6C               	goto	l3673
  3037     0D85  3A01               	xorlw	1	; case 1
  3038     0D86  1903               	skipnz
  3039     0D87  2C89               	goto	l3689
  3040     0D88  3A03               	xorlw	3	; case 2
  3041     0D89  1903               	skipnz
  3042     0D8A  2CA2               	goto	l3701
  3043     0D8B  3A01               	xorlw	1	; case 3
  3044     0D8C  1903               	skipnz
  3045     0D8D  2CB8               	goto	l3705
  3046     0D8E  3A07               	xorlw	7	; case 4
  3047     0D8F  1903               	skipnz
  3048     0D90  2CCE               	goto	l3709
  3049     0D91  3A01               	xorlw	1	; case 5
  3050     0D92  1903               	skipnz
  3051     0D93  2CE6               	goto	l3719
  3052     0D94  3A03               	xorlw	3	; case 6
  3053     0D95  1903               	skipnz
  3054     0D96  2CFB               	goto	l3727
  3055     0D97  3A01               	xorlw	1	; case 7
  3056     0D98  1903               	skipnz
  3057     0D99  2D16               	goto	l3739
  3058     0D9A  3A0F               	xorlw	15	; case 8
  3059     0D9B  1903               	skipnz
  3060     0D9C  2D2E               	goto	l3749
  3061     0D9D  3A01               	xorlw	1	; case 9
  3062     0D9E  1903               	skipnz
  3063     0D9F  2D43               	goto	l3757
  3064     0DA0  3A03               	xorlw	3	; case 10
  3065     0DA1  1903               	skipnz
  3066     0DA2  2D5C               	goto	l3773
  3067     0DA3  3A01               	xorlw	1	; case 11
  3068     0DA4  1903               	skipnz
  3069     0DA5  2D6E               	goto	l3781
  3070     0DA6  2DA7               	goto	l347
  3071     0DA7                     l347:
  3072     0DA7  0008               	return
  3073     0DA8                     __end_of_set_time:
  3074                           
  3075                           	psect	text4
  3076     004D                     __ptext4:	
  3077 ;; *************** function _run_program *****************
  3078 ;; Defined at:
  3079 ;;		line 84 in file "Washing_Machine_Function_def.c"
  3080 ;; Parameters:    Size  Location     Type
  3081 ;;  key             1    wreg     unsigned char 
  3082 ;; Auto vars:     Size  Location     Type
  3083 ;;  key             1   68[BANK0 ] unsigned char 
  3084 ;; Return value:  Size  Location     Type
  3085 ;;                  1    wreg      void 
  3086 ;; Registers used:
  3087 ;;		wreg, fsr0l, fsr0h, status,2, status,0, btemp+1, pclath, cstack
  3088 ;; Tracked objects:
  3089 ;;		On entry : 0/0
  3090 ;;		On exit  : 0/0
  3091 ;;		Unchanged: 0/0
  3092 ;; Data sizes:     COMMON   BANK0   BANK1   BANK3   BANK2
  3093 ;;      Params:         0       0       0       0       0
  3094 ;;      Locals:         0       1       0       0       0
  3095 ;;      Temps:          0      12       0       0       0
  3096 ;;      Totals:         0      13       0       0       0
  3097 ;;Total ram usage:       13 bytes
  3098 ;; Hardware stack levels used: 1
  3099 ;; Hardware stack levels required when called: 4
  3100 ;; This function calls:
  3101 ;;		___awdiv
  3102 ;;		___awmod
  3103 ;;		___bmul
  3104 ;;		___flge
  3105 ;;		___flmul
  3106 ;;		___flsub
  3107 ;;		___fltol
  3108 ;;		___xxtofl
  3109 ;;		_clcd_print
  3110 ;;		_clcd_putch
  3111 ;;		_clear_screen
  3112 ;;		_door_status_check
  3113 ;; This function is called by:
  3114 ;;		_main
  3115 ;; This function uses a non-reentrant model
  3116 ;;
  3117                           
  3118     004D                     _run_program:	
  3119                           ;psect for function _run_program
  3120                           
  3121                           
  3122                           ;incstack = 0
  3123                           ; Regs used in _run_program: [wreg-fsr0h+status,2+status,0+btemp+1+pclath+cstack]
  3124                           ;run_program@key stored from wreg
  3125     004D  1283               	bcf	3,5	;RP0=0, select bank0
  3126     004E  1303               	bcf	3,6	;RP1=0, select bank0
  3127     004F  00E4               	movwf	run_program@key
  3128     0050                     l4055:
  3129                           
  3130                           ;Washing_Machine_Function_def.c: 85:     door_status_check();
  3131     0050  120A  158A  2021  120A  118A  	fcall	_door_status_check
  3132     0055                     l4057:
  3133                           
  3134                           ;Washing_Machine_Function_def.c: 86:     if (reset_flag == 0x44) {
  3135     0055  3044               	movlw	68
  3136     0056  1283               	bcf	3,5	;RP0=0, select bank0
  3137     0057  1303               	bcf	3,6	;RP1=0, select bank0
  3138     0058  066D               	xorwf	_reset_flag,w
  3139     0059  1D03               	btfss	3,2
  3140     005A  285C               	goto	u5381
  3141     005B  285D               	goto	u5380
  3142     005C                     u5381:
  3143     005C  2A1C               	goto	l4103
  3144     005D                     u5380:
  3145     005D                     l4059:
  3146                           
  3147                           ;Washing_Machine_Function_def.c: 87:         clear_screen();
  3148     005D  160A  118A  24D1  120A  118A  	fcall	_clear_screen
  3149     0062                     l4061:
  3150                           
  3151                           ;Washing_Machine_Function_def.c: 88:         clcd_print("Prog:", (0x80 + 0));
  3152     0062  3037               	movlw	low (STR_28| (0+32768))
  3153     0063  1283               	bcf	3,5	;RP0=0, select bank0
  3154     0064  1303               	bcf	3,6	;RP1=0, select bank0
  3155     0065  00A0               	movwf	clcd_print@str
  3156     0066  3091               	movlw	high (STR_28| (0+32768))
  3157     0067  00A1               	movwf	clcd_print@str+1
  3158     0068  3080               	movlw	128
  3159     0069  00A2               	movwf	clcd_print@addr
  3160     006A  160A  118A  25A6  120A  118A  	fcall	_clcd_print
  3161     006F                     l4063:
  3162                           
  3163                           ;Washing_Machine_Function_def.c: 89:         clcd_print(washing_program[program_no], (0x
      +                          80 + 6));
  3164     006F  1283               	bcf	3,5	;RP0=0, select bank0
  3165     0070  1303               	bcf	3,6	;RP1=0, select bank0
  3166     0071  086A               	movf	_program_no,w
  3167     0072  00D8               	movwf	??_run_program
  3168     0073  0758               	addwf	??_run_program,w
  3169     0074  3EA0               	addlw	(low (_washing_program| 0))& (0+255)
  3170     0075  0084               	movwf	4
  3171     0076  1383               	bcf	3,7	;select IRP bank1
  3172     0077  0800               	movf	0,w
  3173     0078  00A0               	movwf	clcd_print@str
  3174     0079  0A84               	incf	4,f
  3175     007A  0800               	movf	0,w
  3176     007B  0384               	decf	4,f
  3177     007C  00A1               	movwf	clcd_print@str+1
  3178     007D  3086               	movlw	134
  3179     007E  00A2               	movwf	clcd_print@addr
  3180     007F  160A  118A  25A6  120A  118A  	fcall	_clcd_print
  3181     0084                     l4065:
  3182                           
  3183                           ;Washing_Machine_Function_def.c: 90:         clcd_print("Time", (0xC0 + 0));
  3184     0084  304F               	movlw	low (STR_29| (0+32768))
  3185     0085  1283               	bcf	3,5	;RP0=0, select bank0
  3186     0086  1303               	bcf	3,6	;RP1=0, select bank0
  3187     0087  00A0               	movwf	clcd_print@str
  3188     0088  3091               	movlw	high (STR_29| (0+32768))
  3189     0089  00A1               	movwf	clcd_print@str+1
  3190     008A  30C0               	movlw	192
  3191     008B  00A2               	movwf	clcd_print@addr
  3192     008C  160A  118A  25A6  120A  118A  	fcall	_clcd_print
  3193     0091                     l4067:
  3194                           
  3195                           ;Washing_Machine_Function_def.c: 91:         clcd_putch(min / 10 + '0', (0xC0 + 6));
  3196     0091  30C6               	movlw	198
  3197     0092  00F8               	movwf	clcd_putch@addr
  3198     0093  300A               	movlw	10
  3199     0094  00F2               	movwf	___awdiv@divisor
  3200     0095  3000               	movlw	0
  3201     0096  00F3               	movwf	___awdiv@divisor+1
  3202     0097  1283               	bcf	3,5	;RP0=0, select bank0
  3203     0098  1303               	bcf	3,6	;RP1=0, select bank0
  3204     0099  086B               	movf	_min,w
  3205     009A  00D8               	movwf	??_run_program
  3206     009B  01D9               	clrf	??_run_program+1
  3207     009C  0858               	movf	??_run_program,w
  3208     009D  00F4               	movwf	___awdiv@dividend
  3209     009E  0859               	movf	??_run_program+1,w
  3210     009F  00F5               	movwf	___awdiv@dividend+1
  3211     00A0  160A  118A  2725  120A  118A  	fcall	___awdiv
  3212     00A5  0872               	movf	?___awdiv,w
  3213     00A6  3E30               	addlw	48
  3214     00A7  160A  118A  2508  120A  118A  	fcall	_clcd_putch
  3215     00AC                     l4069:
  3216                           
  3217                           ;Washing_Machine_Function_def.c: 92:         clcd_putch(min % 10 + '0', (0xC0 + 7));
  3218     00AC  30C7               	movlw	199
  3219     00AD  00F8               	movwf	clcd_putch@addr
  3220     00AE  300A               	movlw	10
  3221     00AF  00F2               	movwf	___awmod@divisor
  3222     00B0  3000               	movlw	0
  3223     00B1  00F3               	movwf	___awmod@divisor+1
  3224     00B2  1283               	bcf	3,5	;RP0=0, select bank0
  3225     00B3  1303               	bcf	3,6	;RP1=0, select bank0
  3226     00B4  086B               	movf	_min,w
  3227     00B5  00D8               	movwf	??_run_program
  3228     00B6  01D9               	clrf	??_run_program+1
  3229     00B7  0858               	movf	??_run_program,w
  3230     00B8  00F4               	movwf	___awmod@dividend
  3231     00B9  0859               	movf	??_run_program+1,w
  3232     00BA  00F5               	movwf	___awmod@dividend+1
  3233     00BB  160A  118A  26CE  120A  118A  	fcall	___awmod
  3234     00C0  0872               	movf	?___awmod,w
  3235     00C1  3E30               	addlw	48
  3236     00C2  160A  118A  2508  120A  118A  	fcall	_clcd_putch
  3237     00C7                     l4071:
  3238                           
  3239                           ;Washing_Machine_Function_def.c: 93:         clcd_putch(':', (0xC0 + 8));
  3240     00C7  30C8               	movlw	200
  3241     00C8  00F8               	movwf	clcd_putch@addr
  3242     00C9  303A               	movlw	58
  3243     00CA  160A  118A  2508  120A  118A  	fcall	_clcd_putch
  3244     00CF                     l4073:
  3245                           
  3246                           ;Washing_Machine_Function_def.c: 94:         clcd_putch(sec / 10 + '0', (0xC0 + 9));
  3247     00CF  30C9               	movlw	201
  3248     00D0  00F8               	movwf	clcd_putch@addr
  3249     00D1  300A               	movlw	10
  3250     00D2  00F2               	movwf	___awdiv@divisor
  3251     00D3  3000               	movlw	0
  3252     00D4  00F3               	movwf	___awdiv@divisor+1
  3253     00D5  1283               	bcf	3,5	;RP0=0, select bank0
  3254     00D6  1303               	bcf	3,6	;RP1=0, select bank0
  3255     00D7  086C               	movf	_sec,w
  3256     00D8  00D8               	movwf	??_run_program
  3257     00D9  01D9               	clrf	??_run_program+1
  3258     00DA  0858               	movf	??_run_program,w
  3259     00DB  00F4               	movwf	___awdiv@dividend
  3260     00DC  0859               	movf	??_run_program+1,w
  3261     00DD  00F5               	movwf	___awdiv@dividend+1
  3262     00DE  160A  118A  2725  120A  118A  	fcall	___awdiv
  3263     00E3  0872               	movf	?___awdiv,w
  3264     00E4  3E30               	addlw	48
  3265     00E5  160A  118A  2508  120A  118A  	fcall	_clcd_putch
  3266     00EA                     l4075:
  3267                           
  3268                           ;Washing_Machine_Function_def.c: 95:         clcd_putch(sec % 10 + '0', (0xC0 + 10));
  3269     00EA  30CA               	movlw	202
  3270     00EB  00F8               	movwf	clcd_putch@addr
  3271     00EC  300A               	movlw	10
  3272     00ED  00F2               	movwf	___awmod@divisor
  3273     00EE  3000               	movlw	0
  3274     00EF  00F3               	movwf	___awmod@divisor+1
  3275     00F0  1283               	bcf	3,5	;RP0=0, select bank0
  3276     00F1  1303               	bcf	3,6	;RP1=0, select bank0
  3277     00F2  086C               	movf	_sec,w
  3278     00F3  00D8               	movwf	??_run_program
  3279     00F4  01D9               	clrf	??_run_program+1
  3280     00F5  0858               	movf	??_run_program,w
  3281     00F6  00F4               	movwf	___awmod@dividend
  3282     00F7  0859               	movf	??_run_program+1,w
  3283     00F8  00F5               	movwf	___awmod@dividend+1
  3284     00F9  160A  118A  26CE  120A  118A  	fcall	___awmod
  3285     00FE  0872               	movf	?___awmod,w
  3286     00FF  3E30               	addlw	48
  3287     0100  160A  118A  2508  120A  118A  	fcall	_clcd_putch
  3288     0105                     l4077:
  3289                           
  3290                           ;Washing_Machine_Function_def.c: 96:         reset_flag = 0xFF;
  3291     0105  30FF               	movlw	255
  3292     0106  1283               	bcf	3,5	;RP0=0, select bank0
  3293     0107  1303               	bcf	3,6	;RP1=0, select bank0
  3294     0108  00ED               	movwf	_reset_flag
  3295     0109                     l4079:
  3296                           
  3297                           ;Washing_Machine_Function_def.c: 98:         _delay((unsigned long)((2000)*(20000000/400
      +                          0.0)));
  3298     0109  3033               	movlw	51
  3299     010A  1283               	bcf	3,5	;RP0=0, select bank0
  3300     010B  1303               	bcf	3,6	;RP1=0, select bank0
  3301     010C  00DA               	movwf	??_run_program+2
  3302     010D  30BB               	movlw	187
  3303     010E  00D9               	movwf	??_run_program+1
  3304     010F  30DF               	movlw	223
  3305     0110  00D8               	movwf	??_run_program
  3306     0111                     u5597:
  3307     0111  0BD8               	decfsz	??_run_program,f
  3308     0112  2911               	goto	u5597
  3309     0113  0BD9               	decfsz	??_run_program+1,f
  3310     0114  2911               	goto	u5597
  3311     0115  0BDA               	decfsz	??_run_program+2,f
  3312     0116  2911               	goto	u5597
  3313     0117                     l4081:
  3314                           
  3315                           ;Washing_Machine_Function_def.c: 99:         clear_screen();
  3316     0117  160A  118A  24D1  120A  118A  	fcall	_clear_screen
  3317     011C                     l4083:
  3318                           
  3319                           ;Washing_Machine_Function_def.c: 100:         clcd_print("Function", (0x80 + 0));
  3320     011C  3006               	movlw	low (STR_30| (0+32768))
  3321     011D  1283               	bcf	3,5	;RP0=0, select bank0
  3322     011E  1303               	bcf	3,6	;RP1=0, select bank0
  3323     011F  00A0               	movwf	clcd_print@str
  3324     0120  3091               	movlw	high (STR_30| (0+32768))
  3325     0121  00A1               	movwf	clcd_print@str+1
  3326     0122  3080               	movlw	128
  3327     0123  00A2               	movwf	clcd_print@addr
  3328     0124  160A  118A  25A6  120A  118A  	fcall	_clcd_print
  3329     0129                     l4085:
  3330                           
  3331                           ;Washing_Machine_Function_def.c: 101:         clcd_print("Time", (0xC0 + 0));
  3332     0129  304F               	movlw	low (STR_29| (0+32768))
  3333     012A  1283               	bcf	3,5	;RP0=0, select bank0
  3334     012B  1303               	bcf	3,6	;RP1=0, select bank0
  3335     012C  00A0               	movwf	clcd_print@str
  3336     012D  3091               	movlw	high (STR_29| (0+32768))
  3337     012E  00A1               	movwf	clcd_print@str+1
  3338     012F  30C0               	movlw	192
  3339     0130  00A2               	movwf	clcd_print@addr
  3340     0131  160A  118A  25A6  120A  118A  	fcall	_clcd_print
  3341     0136                     l4087:
  3342                           
  3343                           ;Washing_Machine_Function_def.c: 102:         clcd_print("SW5: START ", (0x90 + 0));
  3344     0136  3084               	movlw	low (STR_32| (0+32768))
  3345     0137  1283               	bcf	3,5	;RP0=0, select bank0
  3346     0138  1303               	bcf	3,6	;RP1=0, select bank0
  3347     0139  00A0               	movwf	clcd_print@str
  3348     013A  3090               	movlw	high (STR_32| (0+32768))
  3349     013B  00A1               	movwf	clcd_print@str+1
  3350     013C  3090               	movlw	144
  3351     013D  00A2               	movwf	clcd_print@addr
  3352     013E  160A  118A  25A6  120A  118A  	fcall	_clcd_print
  3353     0143                     l4089:
  3354                           
  3355                           ;Washing_Machine_Function_def.c: 103:         clcd_print("SW6: PAUSE", (0xD0 + 0));
  3356     0143  309C               	movlw	low (STR_33| (0+32768))
  3357     0144  1283               	bcf	3,5	;RP0=0, select bank0
  3358     0145  1303               	bcf	3,6	;RP1=0, select bank0
  3359     0146  00A0               	movwf	clcd_print@str
  3360     0147  3090               	movlw	high (STR_33| (0+32768))
  3361     0148  00A1               	movwf	clcd_print@str+1
  3362     0149  30D0               	movlw	208
  3363     014A  00A2               	movwf	clcd_print@addr
  3364     014B  160A  118A  25A6  120A  118A  	fcall	_clcd_print
  3365     0150                     l4091:
  3366                           
  3367                           ;Washing_Machine_Function_def.c: 105:         total_time = time = min * 60 + sec;
  3368     0150  303C               	movlw	60
  3369     0151  00F2               	movwf	___bmul@multiplicand
  3370     0152  1283               	bcf	3,5	;RP0=0, select bank0
  3371     0153  1303               	bcf	3,6	;RP1=0, select bank0
  3372     0154  086B               	movf	_min,w
  3373     0155  160A  118A  24E2  120A  118A  	fcall	___bmul
  3374     015A  1283               	bcf	3,5	;RP0=0, select bank0
  3375     015B  1303               	bcf	3,6	;RP1=0, select bank0
  3376     015C  076C               	addwf	_sec,w
  3377     015D  00E5               	movwf	_time
  3378     015E  00E8               	movwf	_total_time
  3379     015F                     l4093:
  3380                           
  3381                           ;Washing_Machine_Function_def.c: 106:         wash_time = (int) total_time * 0.46;
  3382     015F  0868               	movf	_total_time,w
  3383     0160  00D8               	movwf	??_run_program
  3384     0161  01D9               	clrf	??_run_program+1
  3385     0162  01DA               	clrf	??_run_program+2
  3386     0163  01DB               	clrf	??_run_program+3
  3387     0164  085B               	movf	??_run_program+3,w
  3388     0165  00F5               	movwf	___xxtofl@val+3
  3389     0166  085A               	movf	??_run_program+2,w
  3390     0167  00F4               	movwf	___xxtofl@val+2
  3391     0168  0859               	movf	??_run_program+1,w
  3392     0169  00F3               	movwf	___xxtofl@val+1
  3393     016A  0858               	movf	??_run_program,w
  3394     016B  00F2               	movwf	___xxtofl@val
  3395     016C  3001               	movlw	1
  3396     016D  120A  158A  2282  120A  118A  	fcall	___xxtofl
  3397     0172  0875               	movf	?___xxtofl+3,w
  3398     0173  1283               	bcf	3,5	;RP0=0, select bank0
  3399     0174  1303               	bcf	3,6	;RP1=0, select bank0
  3400     0175  00B1               	movwf	___flmul@a+3
  3401     0176  0874               	movf	?___xxtofl+2,w
  3402     0177  00B0               	movwf	___flmul@a+2
  3403     0178  0873               	movf	?___xxtofl+1,w
  3404     0179  00AF               	movwf	___flmul@a+1
  3405     017A  0872               	movf	?___xxtofl,w
  3406     017B  00AE               	movwf	___flmul@a
  3407     017C  303E               	movlw	62
  3408     017D  00AD               	movwf	___flmul@b+3
  3409     017E  30EB               	movlw	235
  3410     017F  00AC               	movwf	___flmul@b+2
  3411     0180  3085               	movlw	133
  3412     0181  00AB               	movwf	___flmul@b+1
  3413     0182  301F               	movlw	31
  3414     0183  00AA               	movwf	___flmul@b
  3415     0184  120A  118A  2417  120A  118A  	fcall	___flmul
  3416     0189  1283               	bcf	3,5	;RP0=0, select bank0
  3417     018A  1303               	bcf	3,6	;RP1=0, select bank0
  3418     018B  082D               	movf	?___flmul+3,w
  3419     018C  00C7               	movwf	___fltol@f1+3
  3420     018D  082C               	movf	?___flmul+2,w
  3421     018E  00C6               	movwf	___fltol@f1+2
  3422     018F  082B               	movf	?___flmul+1,w
  3423     0190  00C5               	movwf	___fltol@f1+1
  3424     0191  082A               	movf	?___flmul,w
  3425     0192  00C4               	movwf	___fltol@f1
  3426     0193  160A  118A  278A  120A  118A  	fcall	___fltol
  3427     0198  1283               	bcf	3,5	;RP0=0, select bank0
  3428     0199  1303               	bcf	3,6	;RP1=0, select bank0
  3429     019A  0844               	movf	?___fltol,w
  3430     019B  00E7               	movwf	_wash_time
  3431     019C                     l4095:
  3432                           
  3433                           ;Washing_Machine_Function_def.c: 107:         rinse_time = (int) total_time * 0.12;
  3434     019C  0868               	movf	_total_time,w
  3435     019D  00D8               	movwf	??_run_program
  3436     019E  01D9               	clrf	??_run_program+1
  3437     019F  01DA               	clrf	??_run_program+2
  3438     01A0  01DB               	clrf	??_run_program+3
  3439     01A1  085B               	movf	??_run_program+3,w
  3440     01A2  00F5               	movwf	___xxtofl@val+3
  3441     01A3  085A               	movf	??_run_program+2,w
  3442     01A4  00F4               	movwf	___xxtofl@val+2
  3443     01A5  0859               	movf	??_run_program+1,w
  3444     01A6  00F3               	movwf	___xxtofl@val+1
  3445     01A7  0858               	movf	??_run_program,w
  3446     01A8  00F2               	movwf	___xxtofl@val
  3447     01A9  3001               	movlw	1
  3448     01AA  120A  158A  2282  120A  118A  	fcall	___xxtofl
  3449     01AF  0875               	movf	?___xxtofl+3,w
  3450     01B0  1283               	bcf	3,5	;RP0=0, select bank0
  3451     01B1  1303               	bcf	3,6	;RP1=0, select bank0
  3452     01B2  00B1               	movwf	___flmul@a+3
  3453     01B3  0874               	movf	?___xxtofl+2,w
  3454     01B4  00B0               	movwf	___flmul@a+2
  3455     01B5  0873               	movf	?___xxtofl+1,w
  3456     01B6  00AF               	movwf	___flmul@a+1
  3457     01B7  0872               	movf	?___xxtofl,w
  3458     01B8  00AE               	movwf	___flmul@a
  3459     01B9  303D               	movlw	61
  3460     01BA  00AD               	movwf	___flmul@b+3
  3461     01BB  30F5               	movlw	245
  3462     01BC  00AC               	movwf	___flmul@b+2
  3463     01BD  30C2               	movlw	194
  3464     01BE  00AB               	movwf	___flmul@b+1
  3465     01BF  308F               	movlw	143
  3466     01C0  00AA               	movwf	___flmul@b
  3467     01C1  120A  118A  2417  120A  118A  	fcall	___flmul
  3468     01C6  1283               	bcf	3,5	;RP0=0, select bank0
  3469     01C7  1303               	bcf	3,6	;RP1=0, select bank0
  3470     01C8  082D               	movf	?___flmul+3,w
  3471     01C9  00C7               	movwf	___fltol@f1+3
  3472     01CA  082C               	movf	?___flmul+2,w
  3473     01CB  00C6               	movwf	___fltol@f1+2
  3474     01CC  082B               	movf	?___flmul+1,w
  3475     01CD  00C5               	movwf	___fltol@f1+1
  3476     01CE  082A               	movf	?___flmul,w
  3477     01CF  00C4               	movwf	___fltol@f1
  3478     01D0  160A  118A  278A  120A  118A  	fcall	___fltol
  3479     01D5  1283               	bcf	3,5	;RP0=0, select bank0
  3480     01D6  1303               	bcf	3,6	;RP1=0, select bank0
  3481     01D7  0844               	movf	?___fltol,w
  3482     01D8  1683               	bsf	3,5	;RP0=1, select bank1
  3483     01D9  1303               	bcf	3,6	;RP1=0, select bank1
  3484     01DA  00C8               	movwf	_rinse_time^(0+128)
  3485     01DB                     l4097:
  3486                           
  3487                           ;Washing_Machine_Function_def.c: 108:         spin_time = (int) total_time * 0.42;
  3488     01DB  1283               	bcf	3,5	;RP0=0, select bank0
  3489     01DC  1303               	bcf	3,6	;RP1=0, select bank0
  3490     01DD  0868               	movf	_total_time,w
  3491     01DE  00D8               	movwf	??_run_program
  3492     01DF  01D9               	clrf	??_run_program+1
  3493     01E0  01DA               	clrf	??_run_program+2
  3494     01E1  01DB               	clrf	??_run_program+3
  3495     01E2  085B               	movf	??_run_program+3,w
  3496     01E3  00F5               	movwf	___xxtofl@val+3
  3497     01E4  085A               	movf	??_run_program+2,w
  3498     01E5  00F4               	movwf	___xxtofl@val+2
  3499     01E6  0859               	movf	??_run_program+1,w
  3500     01E7  00F3               	movwf	___xxtofl@val+1
  3501     01E8  0858               	movf	??_run_program,w
  3502     01E9  00F2               	movwf	___xxtofl@val
  3503     01EA  3001               	movlw	1
  3504     01EB  120A  158A  2282  120A  118A  	fcall	___xxtofl
  3505     01F0  0875               	movf	?___xxtofl+3,w
  3506     01F1  1283               	bcf	3,5	;RP0=0, select bank0
  3507     01F2  1303               	bcf	3,6	;RP1=0, select bank0
  3508     01F3  00B1               	movwf	___flmul@a+3
  3509     01F4  0874               	movf	?___xxtofl+2,w
  3510     01F5  00B0               	movwf	___flmul@a+2
  3511     01F6  0873               	movf	?___xxtofl+1,w
  3512     01F7  00AF               	movwf	___flmul@a+1
  3513     01F8  0872               	movf	?___xxtofl,w
  3514     01F9  00AE               	movwf	___flmul@a
  3515     01FA  303E               	movlw	62
  3516     01FB  00AD               	movwf	___flmul@b+3
  3517     01FC  30D7               	movlw	215
  3518     01FD  00AC               	movwf	___flmul@b+2
  3519     01FE  300A               	movlw	10
  3520     01FF  00AB               	movwf	___flmul@b+1
  3521     0200  303D               	movlw	61
  3522     0201  00AA               	movwf	___flmul@b
  3523     0202  120A  118A  2417  120A  118A  	fcall	___flmul
  3524     0207  1283               	bcf	3,5	;RP0=0, select bank0
  3525     0208  1303               	bcf	3,6	;RP1=0, select bank0
  3526     0209  082D               	movf	?___flmul+3,w
  3527     020A  00C7               	movwf	___fltol@f1+3
  3528     020B  082C               	movf	?___flmul+2,w
  3529     020C  00C6               	movwf	___fltol@f1+2
  3530     020D  082B               	movf	?___flmul+1,w
  3531     020E  00C5               	movwf	___fltol@f1+1
  3532     020F  082A               	movf	?___flmul,w
  3533     0210  00C4               	movwf	___fltol@f1
  3534     0211  160A  118A  278A  120A  118A  	fcall	___fltol
  3535     0216  1283               	bcf	3,5	;RP0=0, select bank0
  3536     0217  1303               	bcf	3,6	;RP1=0, select bank0
  3537     0218  0844               	movf	?___fltol,w
  3538     0219  00E6               	movwf	_spin_time
  3539     021A                     l4099:
  3540                           
  3541                           ;Washing_Machine_Function_def.c: 111:         TMR2ON = 1;
  3542     021A  1512               	bsf	18,2	;volatile
  3543     021B                     l4101:
  3544                           
  3545                           ;Washing_Machine_Function_def.c: 113:         RC2 = 1;
  3546     021B  1507               	bsf	7,2	;volatile
  3547     021C                     l4103:
  3548                           
  3549                           ;Washing_Machine_Function_def.c: 116:     if(key == 0x1F) {
  3550     021C  301F               	movlw	31
  3551     021D  0664               	xorwf	run_program@key,w
  3552     021E  1D03               	btfss	3,2
  3553     021F  2A21               	goto	u5391
  3554     0220  2A22               	goto	u5390
  3555     0221                     u5391:
  3556     0221  2A26               	goto	l4107
  3557     0222                     u5390:
  3558     0222                     l4105:
  3559                           
  3560                           ;Washing_Machine_Function_def.c: 117:         TMR2ON = 0;
  3561     0222  1112               	bcf	18,2	;volatile
  3562                           
  3563                           ;Washing_Machine_Function_def.c: 119:         RC2 = 0;
  3564     0223  1107               	bcf	7,2	;volatile
  3565                           
  3566                           ;Washing_Machine_Function_def.c: 120:         operational_mode = 0x55;
  3567     0224  3055               	movlw	85
  3568     0225  00EE               	movwf	_operational_mode
  3569     0226                     l4107:
  3570                           
  3571                           ;Washing_Machine_Function_def.c: 123:     total_time = time = min * 60 + sec;
  3572     0226  303C               	movlw	60
  3573     0227  00F2               	movwf	___bmul@multiplicand
  3574     0228  086B               	movf	_min,w
  3575     0229  160A  118A  24E2  120A  118A  	fcall	___bmul
  3576     022E  1283               	bcf	3,5	;RP0=0, select bank0
  3577     022F  1303               	bcf	3,6	;RP1=0, select bank0
  3578     0230  076C               	addwf	_sec,w
  3579     0231  00E5               	movwf	_time
  3580     0232  00E8               	movwf	_total_time
  3581     0233                     l4109:
  3582                           
  3583                           ;Washing_Machine_Function_def.c: 124:     if (program_no <= 7) {
  3584     0233  3008               	movlw	8
  3585     0234  026A               	subwf	_program_no,w
  3586     0235  1803               	skipnc
  3587     0236  2A38               	goto	u5401
  3588     0237  2A39               	goto	u5400
  3589     0238                     u5401:
  3590     0238  2A96               	goto	l4121
  3591     0239                     u5400:
  3592     0239                     l4111:
  3593                           
  3594                           ;Washing_Machine_Function_def.c: 125:         if (total_time >= (time - wash_time)) {
  3595     0239  0865               	movf	_time,w
  3596     023A  00D8               	movwf	??_run_program
  3597     023B  01D9               	clrf	??_run_program+1
  3598     023C  0859               	movf	??_run_program+1,w
  3599     023D  00DB               	movwf	??_run_program+3
  3600     023E  0867               	movf	_wash_time,w
  3601     023F  0258               	subwf	??_run_program,w
  3602     0240  00DA               	movwf	??_run_program+2
  3603     0241  1C03               	skipc
  3604     0242  03DB               	decf	??_run_program+3,f
  3605     0243  085B               	movf	??_run_program+3,w
  3606     0244  3A80               	xorlw	128
  3607     0245  3C80               	sublw	128
  3608     0246  1D03               	skipz
  3609     0247  2A4A               	goto	u5415
  3610     0248  085A               	movf	??_run_program+2,w
  3611     0249  0268               	subwf	_total_time,w
  3612     024A                     u5415:
  3613     024A  1C03               	skipc
  3614     024B  2A4D               	goto	u5411
  3615     024C  2A4E               	goto	u5410
  3616     024D                     u5411:
  3617     024D  2A5C               	goto	l4115
  3618     024E                     u5410:
  3619     024E                     l4113:
  3620                           
  3621                           ;Washing_Machine_Function_def.c: 126:             clcd_print("Wash", (0x80 + 10));
  3622     024E  30B8               	movlw	low ((STR_11+6)| (0+32768))
  3623     024F  1283               	bcf	3,5	;RP0=0, select bank0
  3624     0250  1303               	bcf	3,6	;RP1=0, select bank0
  3625     0251  00A0               	movwf	clcd_print@str
  3626     0252  3090               	movlw	high ((STR_11+6)| (0+32768))
  3627     0253  00A1               	movwf	clcd_print@str+1
  3628     0254  308A               	movlw	138
  3629     0255  00A2               	movwf	clcd_print@addr
  3630     0256  160A  118A  25A6  120A  118A  	fcall	_clcd_print
  3631                           
  3632                           ;Washing_Machine_Function_def.c: 127:         } else if (total_time >= time - wash_time 
      +                          - spin_time) {
  3633     025B  2B5B               	goto	l4135
  3634     025C                     l4115:
  3635     025C  1283               	bcf	3,5	;RP0=0, select bank0
  3636     025D  1303               	bcf	3,6	;RP1=0, select bank0
  3637     025E  0865               	movf	_time,w
  3638     025F  00D8               	movwf	??_run_program
  3639     0260  01D9               	clrf	??_run_program+1
  3640     0261  0859               	movf	??_run_program+1,w
  3641     0262  00DB               	movwf	??_run_program+3
  3642     0263  0867               	movf	_wash_time,w
  3643     0264  0258               	subwf	??_run_program,w
  3644     0265  00DA               	movwf	??_run_program+2
  3645     0266  1C03               	skipc
  3646     0267  03DB               	decf	??_run_program+3,f
  3647     0268  085B               	movf	??_run_program+3,w
  3648     0269  00DD               	movwf	??_run_program+5
  3649     026A  0866               	movf	_spin_time,w
  3650     026B  025A               	subwf	??_run_program+2,w
  3651     026C  00DC               	movwf	??_run_program+4
  3652     026D  1C03               	skipc
  3653     026E  03DD               	decf	??_run_program+5,f
  3654     026F  085D               	movf	??_run_program+5,w
  3655     0270  3A80               	xorlw	128
  3656     0271  3C80               	sublw	128
  3657     0272  1D03               	skipz
  3658     0273  2A76               	goto	u5425
  3659     0274  085C               	movf	??_run_program+4,w
  3660     0275  0268               	subwf	_total_time,w
  3661     0276                     u5425:
  3662     0276  1C03               	skipc
  3663     0277  2A79               	goto	u5421
  3664     0278  2A7A               	goto	u5420
  3665     0279                     u5421:
  3666     0279  2A88               	goto	l4119
  3667     027A                     u5420:
  3668     027A                     l4117:
  3669                           
  3670                           ;Washing_Machine_Function_def.c: 128:             clcd_print("Rinse", (0x80 + 10));
  3671     027A  303D               	movlw	low (STR_35| (0+32768))
  3672     027B  1283               	bcf	3,5	;RP0=0, select bank0
  3673     027C  1303               	bcf	3,6	;RP1=0, select bank0
  3674     027D  00A0               	movwf	clcd_print@str
  3675     027E  3091               	movlw	high (STR_35| (0+32768))
  3676     027F  00A1               	movwf	clcd_print@str+1
  3677     0280  308A               	movlw	138
  3678     0281  00A2               	movwf	clcd_print@addr
  3679     0282  160A  118A  25A6  120A  118A  	fcall	_clcd_print
  3680                           
  3681                           ;Washing_Machine_Function_def.c: 129:         } else {
  3682     0287  2B5B               	goto	l4135
  3683     0288                     l4119:
  3684                           
  3685                           ;Washing_Machine_Function_def.c: 130:             clcd_print("Spin", (0x80 + 10));
  3686     0288  3059               	movlw	low (STR_36| (0+32768))
  3687     0289  1283               	bcf	3,5	;RP0=0, select bank0
  3688     028A  1303               	bcf	3,6	;RP1=0, select bank0
  3689     028B  00A0               	movwf	clcd_print@str
  3690     028C  3091               	movlw	high (STR_36| (0+32768))
  3691     028D  00A1               	movwf	clcd_print@str+1
  3692     028E  308A               	movlw	138
  3693     028F  00A2               	movwf	clcd_print@addr
  3694     0290  160A  118A  25A6  120A  118A  	fcall	_clcd_print
  3695     0295  2B5B               	goto	l4135
  3696     0296                     l4121:
  3697     0296  3008               	movlw	8
  3698     0297  066A               	xorwf	_program_no,w
  3699     0298  1D03               	btfss	3,2
  3700     0299  2A9B               	goto	u5431
  3701     029A  2A9C               	goto	u5430
  3702     029B                     u5431:
  3703     029B  2B3E               	goto	l4129
  3704     029C                     u5430:
  3705     029C                     l4123:
  3706                           
  3707                           ;Washing_Machine_Function_def.c: 133:         if (total_time >= (time - (0.40 * time))) 
      +                          {
  3708     029C  0868               	movf	_total_time,w
  3709     029D  00D8               	movwf	??_run_program
  3710     029E  01D9               	clrf	??_run_program+1
  3711     029F  01DA               	clrf	??_run_program+2
  3712     02A0  01DB               	clrf	??_run_program+3
  3713     02A1  085B               	movf	??_run_program+3,w
  3714     02A2  00F5               	movwf	___xxtofl@val+3
  3715     02A3  085A               	movf	??_run_program+2,w
  3716     02A4  00F4               	movwf	___xxtofl@val+2
  3717     02A5  0859               	movf	??_run_program+1,w
  3718     02A6  00F3               	movwf	___xxtofl@val+1
  3719     02A7  0858               	movf	??_run_program,w
  3720     02A8  00F2               	movwf	___xxtofl@val
  3721     02A9  3001               	movlw	1
  3722     02AA  120A  158A  2282  120A  118A  	fcall	___xxtofl
  3723     02AF  0875               	movf	?___xxtofl+3,w
  3724     02B0  1283               	bcf	3,5	;RP0=0, select bank0
  3725     02B1  1303               	bcf	3,6	;RP1=0, select bank0
  3726     02B2  00CF               	movwf	___flge@ff1+3
  3727     02B3  0874               	movf	?___xxtofl+2,w
  3728     02B4  00CE               	movwf	___flge@ff1+2
  3729     02B5  0873               	movf	?___xxtofl+1,w
  3730     02B6  00CD               	movwf	___flge@ff1+1
  3731     02B7  0872               	movf	?___xxtofl,w
  3732     02B8  00CC               	movwf	___flge@ff1
  3733     02B9  0865               	movf	_time,w
  3734     02BA  00DC               	movwf	??_run_program+4
  3735     02BB  01DD               	clrf	??_run_program+5
  3736     02BC  01DE               	clrf	??_run_program+6
  3737     02BD  01DF               	clrf	??_run_program+7
  3738     02BE  085F               	movf	??_run_program+7,w
  3739     02BF  00F5               	movwf	___xxtofl@val+3
  3740     02C0  085E               	movf	??_run_program+6,w
  3741     02C1  00F4               	movwf	___xxtofl@val+2
  3742     02C2  085D               	movf	??_run_program+5,w
  3743     02C3  00F3               	movwf	___xxtofl@val+1
  3744     02C4  085C               	movf	??_run_program+4,w
  3745     02C5  00F2               	movwf	___xxtofl@val
  3746     02C6  3001               	movlw	1
  3747     02C7  120A  158A  2282  120A  118A  	fcall	___xxtofl
  3748     02CC  0875               	movf	?___xxtofl+3,w
  3749     02CD  1283               	bcf	3,5	;RP0=0, select bank0
  3750     02CE  1303               	bcf	3,6	;RP1=0, select bank0
  3751     02CF  00CB               	movwf	___flsub@b+3
  3752     02D0  0874               	movf	?___xxtofl+2,w
  3753     02D1  00CA               	movwf	___flsub@b+2
  3754     02D2  0873               	movf	?___xxtofl+1,w
  3755     02D3  00C9               	movwf	___flsub@b+1
  3756     02D4  0872               	movf	?___xxtofl,w
  3757     02D5  00C8               	movwf	___flsub@b
  3758     02D6  0865               	movf	_time,w
  3759     02D7  00E0               	movwf	??_run_program+8
  3760     02D8  01E1               	clrf	??_run_program+9
  3761     02D9  01E2               	clrf	??_run_program+10
  3762     02DA  01E3               	clrf	??_run_program+11
  3763     02DB  0863               	movf	??_run_program+11,w
  3764     02DC  00F5               	movwf	___xxtofl@val+3
  3765     02DD  0862               	movf	??_run_program+10,w
  3766     02DE  00F4               	movwf	___xxtofl@val+2
  3767     02DF  0861               	movf	??_run_program+9,w
  3768     02E0  00F3               	movwf	___xxtofl@val+1
  3769     02E1  0860               	movf	??_run_program+8,w
  3770     02E2  00F2               	movwf	___xxtofl@val
  3771     02E3  3001               	movlw	1
  3772     02E4  120A  158A  2282  120A  118A  	fcall	___xxtofl
  3773     02E9  0875               	movf	?___xxtofl+3,w
  3774     02EA  1283               	bcf	3,5	;RP0=0, select bank0
  3775     02EB  1303               	bcf	3,6	;RP1=0, select bank0
  3776     02EC  00B1               	movwf	___flmul@a+3
  3777     02ED  0874               	movf	?___xxtofl+2,w
  3778     02EE  00B0               	movwf	___flmul@a+2
  3779     02EF  0873               	movf	?___xxtofl+1,w
  3780     02F0  00AF               	movwf	___flmul@a+1
  3781     02F1  0872               	movf	?___xxtofl,w
  3782     02F2  00AE               	movwf	___flmul@a
  3783     02F3  303E               	movlw	62
  3784     02F4  00AD               	movwf	___flmul@b+3
  3785     02F5  30CC               	movlw	204
  3786     02F6  00AC               	movwf	___flmul@b+2
  3787     02F7  30CC               	movlw	204
  3788     02F8  00AB               	movwf	___flmul@b+1
  3789     02F9  30CD               	movlw	205
  3790     02FA  00AA               	movwf	___flmul@b
  3791     02FB  120A  118A  2417  120A  118A  	fcall	___flmul
  3792     0300  1283               	bcf	3,5	;RP0=0, select bank0
  3793     0301  1303               	bcf	3,6	;RP1=0, select bank0
  3794     0302  082D               	movf	?___flmul+3,w
  3795     0303  00C7               	movwf	___flsub@a+3
  3796     0304  082C               	movf	?___flmul+2,w
  3797     0305  00C6               	movwf	___flsub@a+2
  3798     0306  082B               	movf	?___flmul+1,w
  3799     0307  00C5               	movwf	___flsub@a+1
  3800     0308  082A               	movf	?___flmul,w
  3801     0309  00C4               	movwf	___flsub@a
  3802     030A  160A  118A  2559  120A  118A  	fcall	___flsub
  3803     030F  1283               	bcf	3,5	;RP0=0, select bank0
  3804     0310  1303               	bcf	3,6	;RP1=0, select bank0
  3805     0311  0847               	movf	?___flsub+3,w
  3806     0312  00D3               	movwf	___flge@ff2+3
  3807     0313  0846               	movf	?___flsub+2,w
  3808     0314  00D2               	movwf	___flge@ff2+2
  3809     0315  0845               	movf	?___flsub+1,w
  3810     0316  00D1               	movwf	___flge@ff2+1
  3811     0317  0844               	movf	?___flsub,w
  3812     0318  00D0               	movwf	___flge@ff2
  3813     0319  120A  118A  2759  120A  118A  	fcall	___flge
  3814     031E  1C03               	btfss	3,0
  3815     031F  2B21               	goto	u5441
  3816     0320  2B22               	goto	u5440
  3817     0321                     u5441:
  3818     0321  2B30               	goto	l4127
  3819     0322                     u5440:
  3820     0322                     l4125:
  3821                           
  3822                           ;Washing_Machine_Function_def.c: 134:             clcd_print("Rinse", (0x80 + 10));
  3823     0322  303D               	movlw	low (STR_35| (0+32768))
  3824     0323  1283               	bcf	3,5	;RP0=0, select bank0
  3825     0324  1303               	bcf	3,6	;RP1=0, select bank0
  3826     0325  00A0               	movwf	clcd_print@str
  3827     0326  3091               	movlw	high (STR_35| (0+32768))
  3828     0327  00A1               	movwf	clcd_print@str+1
  3829     0328  308A               	movlw	138
  3830     0329  00A2               	movwf	clcd_print@addr
  3831     032A  160A  118A  25A6  120A  118A  	fcall	_clcd_print
  3832                           
  3833                           ;Washing_Machine_Function_def.c: 135:         } else {
  3834     032F  2B5B               	goto	l4135
  3835     0330                     l4127:
  3836                           
  3837                           ;Washing_Machine_Function_def.c: 136:             clcd_print("Spin", (0x80 + 10));
  3838     0330  3059               	movlw	low (STR_36| (0+32768))
  3839     0331  1283               	bcf	3,5	;RP0=0, select bank0
  3840     0332  1303               	bcf	3,6	;RP1=0, select bank0
  3841     0333  00A0               	movwf	clcd_print@str
  3842     0334  3091               	movlw	high (STR_36| (0+32768))
  3843     0335  00A1               	movwf	clcd_print@str+1
  3844     0336  308A               	movlw	138
  3845     0337  00A2               	movwf	clcd_print@addr
  3846     0338  160A  118A  25A6  120A  118A  	fcall	_clcd_print
  3847     033D  2B5B               	goto	l4135
  3848     033E                     l4129:
  3849     033E  3009               	movlw	9
  3850     033F  066A               	xorwf	_program_no,w
  3851     0340  1D03               	btfss	3,2
  3852     0341  2B43               	goto	u5451
  3853     0342  2B44               	goto	u5450
  3854     0343                     u5451:
  3855     0343  2B50               	goto	l4133
  3856     0344                     u5450:
  3857     0344                     l4131:
  3858                           
  3859                           ;Washing_Machine_Function_def.c: 139:         clcd_print("Spin", (0x80 + 10));
  3860     0344  3059               	movlw	low (STR_36| (0+32768))
  3861     0345  00A0               	movwf	clcd_print@str
  3862     0346  3091               	movlw	high (STR_36| (0+32768))
  3863     0347  00A1               	movwf	clcd_print@str+1
  3864     0348  308A               	movlw	138
  3865     0349  00A2               	movwf	clcd_print@addr
  3866     034A  160A  118A  25A6  120A  118A  	fcall	_clcd_print
  3867                           
  3868                           ;Washing_Machine_Function_def.c: 141:     } else {
  3869     034F  2B5B               	goto	l4135
  3870     0350                     l4133:
  3871                           
  3872                           ;Washing_Machine_Function_def.c: 142:         clcd_print("Wash", (0x80 + 0));
  3873     0350  30B8               	movlw	low ((STR_11+6)| (0+32768))
  3874     0351  00A0               	movwf	clcd_print@str
  3875     0352  3090               	movlw	high ((STR_11+6)| (0+32768))
  3876     0353  00A1               	movwf	clcd_print@str+1
  3877     0354  3080               	movlw	128
  3878     0355  00A2               	movwf	clcd_print@addr
  3879     0356  160A  118A  25A6  120A  118A  	fcall	_clcd_print
  3880     035B                     l4135:
  3881                           
  3882                           ;Washing_Machine_Function_def.c: 145:     clcd_putch(min / 10 + '0', (0xC0 + 6));
  3883     035B  30C6               	movlw	198
  3884     035C  00F8               	movwf	clcd_putch@addr
  3885     035D  300A               	movlw	10
  3886     035E  00F2               	movwf	___awdiv@divisor
  3887     035F  3000               	movlw	0
  3888     0360  00F3               	movwf	___awdiv@divisor+1
  3889     0361  1283               	bcf	3,5	;RP0=0, select bank0
  3890     0362  1303               	bcf	3,6	;RP1=0, select bank0
  3891     0363  086B               	movf	_min,w
  3892     0364  00D8               	movwf	??_run_program
  3893     0365  01D9               	clrf	??_run_program+1
  3894     0366  0858               	movf	??_run_program,w
  3895     0367  00F4               	movwf	___awdiv@dividend
  3896     0368  0859               	movf	??_run_program+1,w
  3897     0369  00F5               	movwf	___awdiv@dividend+1
  3898     036A  160A  118A  2725  120A  118A  	fcall	___awdiv
  3899     036F  0872               	movf	?___awdiv,w
  3900     0370  3E30               	addlw	48
  3901     0371  160A  118A  2508  120A  118A  	fcall	_clcd_putch
  3902     0376                     l4137:
  3903                           
  3904                           ;Washing_Machine_Function_def.c: 146:     clcd_putch(min % 10 + '0', (0xC0 + 7));
  3905     0376  30C7               	movlw	199
  3906     0377  00F8               	movwf	clcd_putch@addr
  3907     0378  300A               	movlw	10
  3908     0379  00F2               	movwf	___awmod@divisor
  3909     037A  3000               	movlw	0
  3910     037B  00F3               	movwf	___awmod@divisor+1
  3911     037C  1283               	bcf	3,5	;RP0=0, select bank0
  3912     037D  1303               	bcf	3,6	;RP1=0, select bank0
  3913     037E  086B               	movf	_min,w
  3914     037F  00D8               	movwf	??_run_program
  3915     0380  01D9               	clrf	??_run_program+1
  3916     0381  0858               	movf	??_run_program,w
  3917     0382  00F4               	movwf	___awmod@dividend
  3918     0383  0859               	movf	??_run_program+1,w
  3919     0384  00F5               	movwf	___awmod@dividend+1
  3920     0385  160A  118A  26CE  120A  118A  	fcall	___awmod
  3921     038A  0872               	movf	?___awmod,w
  3922     038B  3E30               	addlw	48
  3923     038C  160A  118A  2508  120A  118A  	fcall	_clcd_putch
  3924     0391                     l4139:
  3925                           
  3926                           ;Washing_Machine_Function_def.c: 147:     clcd_putch(':', (0xC0 + 8));
  3927     0391  30C8               	movlw	200
  3928     0392  00F8               	movwf	clcd_putch@addr
  3929     0393  303A               	movlw	58
  3930     0394  160A  118A  2508  120A  118A  	fcall	_clcd_putch
  3931     0399                     l4141:
  3932                           
  3933                           ;Washing_Machine_Function_def.c: 148:     clcd_putch(sec / 10 + '0', (0xC0 + 9));
  3934     0399  30C9               	movlw	201
  3935     039A  00F8               	movwf	clcd_putch@addr
  3936     039B  300A               	movlw	10
  3937     039C  00F2               	movwf	___awdiv@divisor
  3938     039D  3000               	movlw	0
  3939     039E  00F3               	movwf	___awdiv@divisor+1
  3940     039F  1283               	bcf	3,5	;RP0=0, select bank0
  3941     03A0  1303               	bcf	3,6	;RP1=0, select bank0
  3942     03A1  086C               	movf	_sec,w
  3943     03A2  00D8               	movwf	??_run_program
  3944     03A3  01D9               	clrf	??_run_program+1
  3945     03A4  0858               	movf	??_run_program,w
  3946     03A5  00F4               	movwf	___awdiv@dividend
  3947     03A6  0859               	movf	??_run_program+1,w
  3948     03A7  00F5               	movwf	___awdiv@dividend+1
  3949     03A8  160A  118A  2725  120A  118A  	fcall	___awdiv
  3950     03AD  0872               	movf	?___awdiv,w
  3951     03AE  3E30               	addlw	48
  3952     03AF  160A  118A  2508  120A  118A  	fcall	_clcd_putch
  3953     03B4                     l4143:
  3954                           
  3955                           ;Washing_Machine_Function_def.c: 149:     clcd_putch(sec % 10 + '0', (0xC0 + 10));
  3956     03B4  30CA               	movlw	202
  3957     03B5  00F8               	movwf	clcd_putch@addr
  3958     03B6  300A               	movlw	10
  3959     03B7  00F2               	movwf	___awmod@divisor
  3960     03B8  3000               	movlw	0
  3961     03B9  00F3               	movwf	___awmod@divisor+1
  3962     03BA  1283               	bcf	3,5	;RP0=0, select bank0
  3963     03BB  1303               	bcf	3,6	;RP1=0, select bank0
  3964     03BC  086C               	movf	_sec,w
  3965     03BD  00D8               	movwf	??_run_program
  3966     03BE  01D9               	clrf	??_run_program+1
  3967     03BF  0858               	movf	??_run_program,w
  3968     03C0  00F4               	movwf	___awmod@dividend
  3969     03C1  0859               	movf	??_run_program+1,w
  3970     03C2  00F5               	movwf	___awmod@dividend+1
  3971     03C3  160A  118A  26CE  120A  118A  	fcall	___awmod
  3972     03C8  0872               	movf	?___awmod,w
  3973     03C9  3E30               	addlw	48
  3974     03CA  160A  118A  2508  120A  118A  	fcall	_clcd_putch
  3975     03CF                     l4145:
  3976                           
  3977                           ;Washing_Machine_Function_def.c: 150:     if (min == 0 && sec == 0) {
  3978     03CF  1283               	bcf	3,5	;RP0=0, select bank0
  3979     03D0  1303               	bcf	3,6	;RP1=0, select bank0
  3980     03D1  086B               	movf	_min,w
  3981     03D2  1D03               	btfss	3,2
  3982     03D3  2BD5               	goto	u5461
  3983     03D4  2BD6               	goto	u5460
  3984     03D5                     u5461:
  3985     03D5  2C16               	goto	l246
  3986     03D6                     u5460:
  3987     03D6                     l4147:
  3988     03D6  086C               	movf	_sec,w
  3989     03D7  1D03               	btfss	3,2
  3990     03D8  2BDA               	goto	u5471
  3991     03D9  2BDB               	goto	u5470
  3992     03DA                     u5471:
  3993     03DA  2C16               	goto	l246
  3994     03DB                     u5470:
  3995     03DB                     l4149:
  3996                           
  3997                           ;Washing_Machine_Function_def.c: 151:         clear_screen();
  3998     03DB  160A  118A  24D1  120A  118A  	fcall	_clear_screen
  3999     03E0                     l4151:
  4000                           
  4001                           ;Washing_Machine_Function_def.c: 152:         RC2 = 0;
  4002     03E0  1283               	bcf	3,5	;RP0=0, select bank0
  4003     03E1  1303               	bcf	3,6	;RP1=0, select bank0
  4004     03E2  1107               	bcf	7,2	;volatile
  4005     03E3                     l4153:
  4006                           
  4007                           ;Washing_Machine_Function_def.c: 153:         RC1 = 1;
  4008     03E3  1487               	bsf	7,1	;volatile
  4009     03E4                     l4155:
  4010                           
  4011                           ;Washing_Machine_Function_def.c: 154:         clcd_print("ProgramCompleted", (0x80 + 0))
      +                          ;
  4012     03E4  3000               	movlw	low (STR_41| (0+32768))
  4013     03E5  00A0               	movwf	clcd_print@str
  4014     03E6  3090               	movlw	high (STR_41| (0+32768))
  4015     03E7  00A1               	movwf	clcd_print@str+1
  4016     03E8  3080               	movlw	128
  4017     03E9  00A2               	movwf	clcd_print@addr
  4018     03EA  160A  118A  25A6  120A  118A  	fcall	_clcd_print
  4019     03EF                     l4157:
  4020                           
  4021                           ;Washing_Machine_Function_def.c: 155:         clcd_print("Remove Clothes", (0xC0 + 0));
  4022     03EF  3032               	movlw	low (STR_42| (0+32768))
  4023     03F0  1283               	bcf	3,5	;RP0=0, select bank0
  4024     03F1  1303               	bcf	3,6	;RP1=0, select bank0
  4025     03F2  00A0               	movwf	clcd_print@str
  4026     03F3  3090               	movlw	high (STR_42| (0+32768))
  4027     03F4  00A1               	movwf	clcd_print@str+1
  4028     03F5  30C0               	movlw	192
  4029     03F6  00A2               	movwf	clcd_print@addr
  4030     03F7  160A  118A  25A6  120A  118A  	fcall	_clcd_print
  4031     03FC                     l4159:
  4032                           
  4033                           ;Washing_Machine_Function_def.c: 156:         _delay((unsigned long)((5000)*(20000000/40
      +                          00.0)));
  4034     03FC  307F               	movlw	127
  4035     03FD  1283               	bcf	3,5	;RP0=0, select bank0
  4036     03FE  1303               	bcf	3,6	;RP1=0, select bank0
  4037     03FF  00DA               	movwf	??_run_program+2
  4038     0400  30D4               	movlw	212
  4039     0401  00D9               	movwf	??_run_program+1
  4040     0402  3031               	movlw	49
  4041     0403  00D8               	movwf	??_run_program
  4042     0404                     u5607:
  4043     0404  0BD8               	decfsz	??_run_program,f
  4044     0405  2C04               	goto	u5607
  4045     0406  0BD9               	decfsz	??_run_program+1,f
  4046     0407  2C04               	goto	u5607
  4047     0408  0BDA               	decfsz	??_run_program+2,f
  4048     0409  2C04               	goto	u5607
  4049     040A                     l4161:
  4050                           
  4051                           ;Washing_Machine_Function_def.c: 157:         RC1 = 0;
  4052     040A  1283               	bcf	3,5	;RP0=0, select bank0
  4053     040B  1303               	bcf	3,6	;RP1=0, select bank0
  4054     040C  1087               	bcf	7,1	;volatile
  4055     040D                     l4163:
  4056                           
  4057                           ;Washing_Machine_Function_def.c: 158:         operational_mode = 0x01;
  4058     040D  3001               	movlw	1
  4059     040E  00EE               	movwf	_operational_mode
  4060     040F                     l4165:
  4061                           
  4062                           ;Washing_Machine_Function_def.c: 159:         reset_flag = 0x11;
  4063     040F  3011               	movlw	17
  4064     0410  00ED               	movwf	_reset_flag
  4065     0411                     l4167:
  4066                           
  4067                           ;Washing_Machine_Function_def.c: 160:         clear_screen();
  4068     0411  160A  118A  24D1  120A  118A  	fcall	_clear_screen
  4069     0416                     l246:
  4070     0416  0008               	return
  4071     0417                     __end_of_run_program:
  4072                           
  4073                           	psect	text5
  4074     0821                     __ptext5:	
  4075 ;; *************** function _door_status_check *****************
  4076 ;; Defined at:
  4077 ;;		line 349 in file "Washing_Machine_Function_def.c"
  4078 ;; Parameters:    Size  Location     Type
  4079 ;;		None
  4080 ;; Auto vars:     Size  Location     Type
  4081 ;;		None
  4082 ;; Return value:  Size  Location     Type
  4083 ;;                  1    wreg      void 
  4084 ;; Registers used:
  4085 ;;		wreg, fsr0l, fsr0h, status,2, status,0, btemp+1, pclath, cstack
  4086 ;; Tracked objects:
  4087 ;;		On entry : 0/0
  4088 ;;		On exit  : 0/0
  4089 ;;		Unchanged: 0/0
  4090 ;; Data sizes:     COMMON   BANK0   BANK1   BANK3   BANK2
  4091 ;;      Params:         0       0       0       0       0
  4092 ;;      Locals:         0       0       0       0       0
  4093 ;;      Temps:          0       0       0       0       0
  4094 ;;      Totals:         0       0       0       0       0
  4095 ;;Total ram usage:        0 bytes
  4096 ;; Hardware stack levels used: 1
  4097 ;; Hardware stack levels required when called: 3
  4098 ;; This function calls:
  4099 ;;		_clcd_print
  4100 ;;		_clear_screen
  4101 ;; This function is called by:
  4102 ;;		_run_program
  4103 ;; This function uses a non-reentrant model
  4104 ;;
  4105                           
  4106     0821                     _door_status_check:	
  4107                           ;psect for function _door_status_check
  4108                           
  4109     0821                     l3189:	
  4110                           ;incstack = 0
  4111                           ; Regs used in _door_status_check: [wreg-fsr0h+status,2+status,0+btemp+1+pclath+cstack]
  4112                           
  4113                           
  4114                           ;Washing_Machine_Function_def.c: 350:     if(RB0 == 0) {
  4115     0821  1283               	bcf	3,5	;RP0=0, select bank0
  4116     0822  1303               	bcf	3,6	;RP1=0, select bank0
  4117     0823  1806               	btfsc	6,0	;volatile
  4118     0824  2826               	goto	u3981
  4119     0825  2827               	goto	u3980
  4120     0826                     u3981:
  4121     0826  2898               	goto	l354
  4122     0827                     u3980:
  4123     0827                     l3191:
  4124                           
  4125                           ;Washing_Machine_Function_def.c: 351:         RC2 = 0;
  4126     0827  1107               	bcf	7,2	;volatile
  4127                           
  4128                           ;Washing_Machine_Function_def.c: 352:         TMR2ON = 0;
  4129     0828  1112               	bcf	18,2	;volatile
  4130                           
  4131                           ;Washing_Machine_Function_def.c: 353:         RC1 = 1;
  4132     0829  1487               	bsf	7,1	;volatile
  4133     082A                     l3193:
  4134                           
  4135                           ;Washing_Machine_Function_def.c: 354:         clear_screen();
  4136     082A  160A  118A  24D1  120A  158A  	fcall	_clear_screen
  4137     082F                     l3195:
  4138                           
  4139                           ;Washing_Machine_Function_def.c: 355:         clcd_print("Door is Open",(0x80 + 0));
  4140     082F  306A               	movlw	low (STR_43| (0+32768))
  4141     0830  1283               	bcf	3,5	;RP0=0, select bank0
  4142     0831  1303               	bcf	3,6	;RP1=0, select bank0
  4143     0832  00A0               	movwf	clcd_print@str
  4144     0833  3090               	movlw	high (STR_43| (0+32768))
  4145     0834  00A1               	movwf	clcd_print@str+1
  4146     0835  3080               	movlw	128
  4147     0836  00A2               	movwf	clcd_print@addr
  4148     0837  160A  118A  25A6  120A  158A  	fcall	_clcd_print
  4149     083C                     l3197:
  4150                           
  4151                           ;Washing_Machine_Function_def.c: 356:         clcd_print("Please close ",(0xC0 + 0));
  4152     083C  3041               	movlw	low (STR_44| (0+32768))
  4153     083D  1283               	bcf	3,5	;RP0=0, select bank0
  4154     083E  1303               	bcf	3,6	;RP1=0, select bank0
  4155     083F  00A0               	movwf	clcd_print@str
  4156     0840  3090               	movlw	high (STR_44| (0+32768))
  4157     0841  00A1               	movwf	clcd_print@str+1
  4158     0842  30C0               	movlw	192
  4159     0843  00A2               	movwf	clcd_print@addr
  4160     0844  160A  118A  25A6  120A  158A  	fcall	_clcd_print
  4161     0849                     l3199:
  4162                           
  4163                           ;Washing_Machine_Function_def.c: 357:         clcd_print("Door",(0x90 + 0));
  4164     0849  3063               	movlw	low (STR_45| (0+32768))
  4165     084A  1283               	bcf	3,5	;RP0=0, select bank0
  4166     084B  1303               	bcf	3,6	;RP1=0, select bank0
  4167     084C  00A0               	movwf	clcd_print@str
  4168     084D  3091               	movlw	high (STR_45| (0+32768))
  4169     084E  00A1               	movwf	clcd_print@str+1
  4170     084F  3090               	movlw	144
  4171     0850  00A2               	movwf	clcd_print@addr
  4172     0851  160A  118A  25A6  120A  158A  	fcall	_clcd_print
  4173     0856                     l351:	
  4174                           ;Washing_Machine_Function_def.c: 362:         }
  4175                           
  4176                           
  4177                           ;Washing_Machine_Function_def.c: 360:         while(RB0 == 0) {
  4178     0856  1283               	bcf	3,5	;RP0=0, select bank0
  4179     0857  1303               	bcf	3,6	;RP1=0, select bank0
  4180     0858  1C06               	btfss	6,0	;volatile
  4181     0859  285B               	goto	u3991
  4182     085A  285C               	goto	u3990
  4183     085B                     u3991:
  4184     085B  2856               	goto	l351
  4185     085C                     u3990:
  4186     085C                     l353:
  4187                           
  4188                           ;Washing_Machine_Function_def.c: 363:              RC2 = 1;
  4189     085C  1507               	bsf	7,2	;volatile
  4190                           
  4191                           ;Washing_Machine_Function_def.c: 364:         TMR2ON = 1;
  4192     085D  1512               	bsf	18,2	;volatile
  4193                           
  4194                           ;Washing_Machine_Function_def.c: 365:         RC1 = 0;
  4195     085E  1087               	bcf	7,1	;volatile
  4196     085F                     l3201:
  4197                           
  4198                           ;Washing_Machine_Function_def.c: 366:         clear_screen();
  4199     085F  160A  118A  24D1  120A  158A  	fcall	_clear_screen
  4200     0864                     l3203:
  4201                           
  4202                           ;Washing_Machine_Function_def.c: 367:         clcd_print("Function", (0x80 + 0));
  4203     0864  3006               	movlw	low (STR_30| (0+32768))
  4204     0865  1283               	bcf	3,5	;RP0=0, select bank0
  4205     0866  1303               	bcf	3,6	;RP1=0, select bank0
  4206     0867  00A0               	movwf	clcd_print@str
  4207     0868  3091               	movlw	high (STR_30| (0+32768))
  4208     0869  00A1               	movwf	clcd_print@str+1
  4209     086A  3080               	movlw	128
  4210     086B  00A2               	movwf	clcd_print@addr
  4211     086C  160A  118A  25A6  120A  158A  	fcall	_clcd_print
  4212     0871                     l3205:
  4213                           
  4214                           ;Washing_Machine_Function_def.c: 368:         clcd_print("Time", (0xC0 + 0));
  4215     0871  304F               	movlw	low (STR_29| (0+32768))
  4216     0872  1283               	bcf	3,5	;RP0=0, select bank0
  4217     0873  1303               	bcf	3,6	;RP1=0, select bank0
  4218     0874  00A0               	movwf	clcd_print@str
  4219     0875  3091               	movlw	high (STR_29| (0+32768))
  4220     0876  00A1               	movwf	clcd_print@str+1
  4221     0877  30C0               	movlw	192
  4222     0878  00A2               	movwf	clcd_print@addr
  4223     0879  160A  118A  25A6  120A  158A  	fcall	_clcd_print
  4224     087E                     l3207:
  4225                           
  4226                           ;Washing_Machine_Function_def.c: 369:         clcd_print("SW5: START ", (0x90 + 0));
  4227     087E  3084               	movlw	low (STR_32| (0+32768))
  4228     087F  1283               	bcf	3,5	;RP0=0, select bank0
  4229     0880  1303               	bcf	3,6	;RP1=0, select bank0
  4230     0881  00A0               	movwf	clcd_print@str
  4231     0882  3090               	movlw	high (STR_32| (0+32768))
  4232     0883  00A1               	movwf	clcd_print@str+1
  4233     0884  3090               	movlw	144
  4234     0885  00A2               	movwf	clcd_print@addr
  4235     0886  160A  118A  25A6  120A  158A  	fcall	_clcd_print
  4236     088B                     l3209:
  4237                           
  4238                           ;Washing_Machine_Function_def.c: 370:         clcd_print("SW6: PAUSE", (0xD0 + 0));
  4239     088B  309C               	movlw	low (STR_33| (0+32768))
  4240     088C  1283               	bcf	3,5	;RP0=0, select bank0
  4241     088D  1303               	bcf	3,6	;RP1=0, select bank0
  4242     088E  00A0               	movwf	clcd_print@str
  4243     088F  3090               	movlw	high (STR_33| (0+32768))
  4244     0890  00A1               	movwf	clcd_print@str+1
  4245     0891  30D0               	movlw	208
  4246     0892  00A2               	movwf	clcd_print@addr
  4247     0893  160A  118A  25A6  120A  158A  	fcall	_clcd_print
  4248     0898                     l354:
  4249     0898  0008               	return
  4250     0899                     __end_of_door_status_check:
  4251                           
  4252                           	psect	text6
  4253     14D1                     __ptext6:	
  4254 ;; *************** function _clear_screen *****************
  4255 ;; Defined at:
  4256 ;;		line 376 in file "Washing_Machine_Function_def.c"
  4257 ;; Parameters:    Size  Location     Type
  4258 ;;		None
  4259 ;; Auto vars:     Size  Location     Type
  4260 ;;		None
  4261 ;; Return value:  Size  Location     Type
  4262 ;;                  1    wreg      void 
  4263 ;; Registers used:
  4264 ;;		wreg, status,2, status,0, pclath, cstack
  4265 ;; Tracked objects:
  4266 ;;		On entry : 0/0
  4267 ;;		On exit  : 0/0
  4268 ;;		Unchanged: 0/0
  4269 ;; Data sizes:     COMMON   BANK0   BANK1   BANK3   BANK2
  4270 ;;      Params:         0       0       0       0       0
  4271 ;;      Locals:         0       0       0       0       0
  4272 ;;      Temps:          2       0       0       0       0
  4273 ;;      Totals:         2       0       0       0       0
  4274 ;;Total ram usage:        2 bytes
  4275 ;; Hardware stack levels used: 1
  4276 ;; Hardware stack levels required when called: 2
  4277 ;; This function calls:
  4278 ;;		_clcd_write
  4279 ;; This function is called by:
  4280 ;;		_main
  4281 ;;		_washing_program_display
  4282 ;;		_water_level_screen
  4283 ;;		_run_program
  4284 ;;		_door_status_check
  4285 ;;		_start_stop_screen
  4286 ;; This function uses a non-reentrant model
  4287 ;;
  4288                           
  4289     14D1                     _clear_screen:	
  4290                           ;psect for function _clear_screen
  4291                           
  4292     14D1                     l2939:	
  4293                           ;incstack = 0
  4294                           ; Regs used in _clear_screen: [wreg+status,2+status,0+pclath+cstack]
  4295                           
  4296                           
  4297                           ;Washing_Machine_Function_def.c: 377:     clcd_write(0x01, 0);
  4298     14D1  01F2               	clrf	clcd_write@mode
  4299     14D2  3001               	movlw	1
  4300     14D3  120A  158A  2001  160A  118A  	fcall	_clcd_write
  4301     14D8                     l2941:
  4302                           
  4303                           ;Washing_Machine_Function_def.c: 378:     _delay((unsigned long)((500)*(20000000/4000000
      +                          .0)));
  4304     14D8  3004               	movlw	4
  4305     14D9  00F7               	movwf	??_clear_screen+1
  4306     14DA  303D               	movlw	61
  4307     14DB  00F6               	movwf	??_clear_screen
  4308     14DC                     u5617:
  4309     14DC  0BF6               	decfsz	??_clear_screen,f
  4310     14DD  2CDC               	goto	u5617
  4311     14DE  0BF7               	decfsz	??_clear_screen+1,f
  4312     14DF  2CDC               	goto	u5617
  4313     14E0  2CE1               	nop2
  4314     14E1                     l357:
  4315     14E1  0008               	return
  4316     14E2                     __end_of_clear_screen:
  4317                           
  4318                           	psect	text7
  4319     0A82                     __ptext7:	
  4320 ;; *************** function ___xxtofl *****************
  4321 ;; Defined at:
  4322 ;;		line 10 in file "C:\Program Files\Microchip\xc8\v3.00\pic\sources\c99\common\xxtofl.c"
  4323 ;; Parameters:    Size  Location     Type
  4324 ;;  sign            1    wreg     unsigned char 
  4325 ;;  val             4    2[COMMON] long 
  4326 ;; Auto vars:     Size  Location     Type
  4327 ;;  sign            1    4[BANK0 ] unsigned char 
  4328 ;;  arg             4    6[BANK0 ] unsigned long 
  4329 ;;  exp             1    5[BANK0 ] unsigned char 
  4330 ;; Return value:  Size  Location     Type
  4331 ;;                  4    2[COMMON] unsigned char 
  4332 ;; Registers used:
  4333 ;;		wreg, status,2, status,0
  4334 ;; Tracked objects:
  4335 ;;		On entry : 0/0
  4336 ;;		On exit  : 0/0
  4337 ;;		Unchanged: 0/0
  4338 ;; Data sizes:     COMMON   BANK0   BANK1   BANK3   BANK2
  4339 ;;      Params:         4       0       0       0       0
  4340 ;;      Locals:         0       6       0       0       0
  4341 ;;      Temps:          0       4       0       0       0
  4342 ;;      Totals:         4      10       0       0       0
  4343 ;;Total ram usage:       14 bytes
  4344 ;; Hardware stack levels used: 1
  4345 ;; Hardware stack levels required when called: 1
  4346 ;; This function calls:
  4347 ;;		Nothing
  4348 ;; This function is called by:
  4349 ;;		_run_program
  4350 ;; This function uses a non-reentrant model
  4351 ;;
  4352                           
  4353     0A82                     ___xxtofl:	
  4354                           ;psect for function ___xxtofl
  4355                           
  4356                           
  4357                           ;incstack = 0
  4358                           ; Regs used in ___xxtofl: [wreg+status,2+status,0]
  4359                           ;___xxtofl@sign stored from wreg
  4360     0A82  1283               	bcf	3,5	;RP0=0, select bank0
  4361     0A83  1303               	bcf	3,6	;RP1=0, select bank0
  4362     0A84  00A4               	movwf	___xxtofl@sign
  4363     0A85                     l3511:
  4364     0A85  0824               	movf	___xxtofl@sign,w
  4365     0A86  1903               	btfsc	3,2
  4366     0A87  2A89               	goto	u4751
  4367     0A88  2A8A               	goto	u4750
  4368     0A89                     u4751:
  4369     0A89  2A9E               	goto	l3517
  4370     0A8A                     u4750:
  4371     0A8A                     l3513:
  4372     0A8A  1FF5               	btfss	___xxtofl@val+3,7
  4373     0A8B  2A8D               	goto	u4761
  4374     0A8C  2A8E               	goto	u4760
  4375     0A8D                     u4761:
  4376     0A8D  2A9E               	goto	l3517
  4377     0A8E                     u4760:
  4378     0A8E                     l3515:
  4379     0A8E  0972               	comf	___xxtofl@val,w
  4380     0A8F  00A6               	movwf	___xxtofl@arg
  4381     0A90  0973               	comf	___xxtofl@val+1,w
  4382     0A91  00A7               	movwf	___xxtofl@arg+1
  4383     0A92  0974               	comf	___xxtofl@val+2,w
  4384     0A93  00A8               	movwf	___xxtofl@arg+2
  4385     0A94  0975               	comf	___xxtofl@val+3,w
  4386     0A95  00A9               	movwf	___xxtofl@arg+3
  4387     0A96  0AA6               	incf	___xxtofl@arg,f
  4388     0A97  1903               	skipnz
  4389     0A98  0AA7               	incf	___xxtofl@arg+1,f
  4390     0A99  1903               	skipnz
  4391     0A9A  0AA8               	incf	___xxtofl@arg+2,f
  4392     0A9B  1903               	skipnz
  4393     0A9C  0AA9               	incf	___xxtofl@arg+3,f
  4394     0A9D  2AA6               	goto	l884
  4395     0A9E                     l3517:
  4396     0A9E  0875               	movf	___xxtofl@val+3,w
  4397     0A9F  00A9               	movwf	___xxtofl@arg+3
  4398     0AA0  0874               	movf	___xxtofl@val+2,w
  4399     0AA1  00A8               	movwf	___xxtofl@arg+2
  4400     0AA2  0873               	movf	___xxtofl@val+1,w
  4401     0AA3  00A7               	movwf	___xxtofl@arg+1
  4402     0AA4  0872               	movf	___xxtofl@val,w
  4403     0AA5  00A6               	movwf	___xxtofl@arg
  4404     0AA6                     l884:
  4405     0AA6  0875               	movf	___xxtofl@val+3,w
  4406     0AA7  0474               	iorwf	___xxtofl@val+2,w
  4407     0AA8  0473               	iorwf	___xxtofl@val+1,w
  4408     0AA9  0472               	iorwf	___xxtofl@val,w
  4409     0AAA  1D03               	skipz
  4410     0AAB  2AAD               	goto	u4771
  4411     0AAC  2AAE               	goto	u4770
  4412     0AAD                     u4771:
  4413     0AAD  2AB7               	goto	l885
  4414     0AAE                     u4770:
  4415     0AAE                     l3519:
  4416     0AAE  3000               	movlw	0
  4417     0AAF  00F5               	movwf	?___xxtofl+3
  4418     0AB0  3000               	movlw	0
  4419     0AB1  00F4               	movwf	?___xxtofl+2
  4420     0AB2  3000               	movlw	0
  4421     0AB3  00F3               	movwf	?___xxtofl+1
  4422     0AB4  3000               	movlw	0
  4423     0AB5  00F2               	movwf	?___xxtofl
  4424     0AB6  2B37               	goto	l886
  4425     0AB7                     l885:
  4426     0AB7  3096               	movlw	150
  4427     0AB8  00A5               	movwf	___xxtofl@exp
  4428     0AB9  2AC5               	goto	l3525
  4429     0ABA                     l3523:
  4430     0ABA  3001               	movlw	1
  4431     0ABB  07A5               	addwf	___xxtofl@exp,f
  4432     0ABC  3001               	movlw	1
  4433     0ABD                     u4785:
  4434     0ABD  1003               	clrc
  4435     0ABE  0CA9               	rrf	___xxtofl@arg+3,f
  4436     0ABF  0CA8               	rrf	___xxtofl@arg+2,f
  4437     0AC0  0CA7               	rrf	___xxtofl@arg+1,f
  4438     0AC1  0CA6               	rrf	___xxtofl@arg,f
  4439     0AC2  3EFF               	addlw	-1
  4440     0AC3  1D03               	skipz
  4441     0AC4  2ABD               	goto	u4785
  4442     0AC5                     l3525:
  4443     0AC5  30FE               	movlw	254
  4444     0AC6  0529               	andwf	___xxtofl@arg+3,w
  4445     0AC7  1D03               	btfss	3,2
  4446     0AC8  2ACA               	goto	u4791
  4447     0AC9  2ACB               	goto	u4790
  4448     0ACA                     u4791:
  4449     0ACA  2ABA               	goto	l3523
  4450     0ACB                     u4790:
  4451     0ACB  2AE5               	goto	l890
  4452     0ACC                     l3527:
  4453     0ACC  3001               	movlw	1
  4454     0ACD  07A5               	addwf	___xxtofl@exp,f
  4455     0ACE                     l3529:
  4456     0ACE  3001               	movlw	1
  4457     0ACF  07A6               	addwf	___xxtofl@arg,f
  4458     0AD0  3000               	movlw	0
  4459     0AD1  1803               	skipnc
  4460     0AD2  3001               	movlw	1
  4461     0AD3  07A7               	addwf	___xxtofl@arg+1,f
  4462     0AD4  3000               	movlw	0
  4463     0AD5  1803               	skipnc
  4464     0AD6  3001               	movlw	1
  4465     0AD7  07A8               	addwf	___xxtofl@arg+2,f
  4466     0AD8  3000               	movlw	0
  4467     0AD9  1803               	skipnc
  4468     0ADA  3001               	movlw	1
  4469     0ADB  07A9               	addwf	___xxtofl@arg+3,f
  4470     0ADC                     l3531:
  4471     0ADC  3001               	movlw	1
  4472     0ADD                     u4805:
  4473     0ADD  1003               	clrc
  4474     0ADE  0CA9               	rrf	___xxtofl@arg+3,f
  4475     0ADF  0CA8               	rrf	___xxtofl@arg+2,f
  4476     0AE0  0CA7               	rrf	___xxtofl@arg+1,f
  4477     0AE1  0CA6               	rrf	___xxtofl@arg,f
  4478     0AE2  3EFF               	addlw	-1
  4479     0AE3  1D03               	skipz
  4480     0AE4  2ADD               	goto	u4805
  4481     0AE5                     l890:
  4482     0AE5  30FF               	movlw	255
  4483     0AE6  0529               	andwf	___xxtofl@arg+3,w
  4484     0AE7  1D03               	btfss	3,2
  4485     0AE8  2AEA               	goto	u4811
  4486     0AE9  2AEB               	goto	u4810
  4487     0AEA                     u4811:
  4488     0AEA  2ACC               	goto	l3527
  4489     0AEB                     u4810:
  4490     0AEB  2AF7               	goto	l3535
  4491     0AEC                     l3533:
  4492     0AEC  3001               	movlw	1
  4493     0AED  02A5               	subwf	___xxtofl@exp,f
  4494     0AEE  3001               	movlw	1
  4495     0AEF  00A0               	movwf	??___xxtofl
  4496     0AF0                     u4825:
  4497     0AF0  1003               	clrc
  4498     0AF1  0DA6               	rlf	___xxtofl@arg,f
  4499     0AF2  0DA7               	rlf	___xxtofl@arg+1,f
  4500     0AF3  0DA8               	rlf	___xxtofl@arg+2,f
  4501     0AF4  0DA9               	rlf	___xxtofl@arg+3,f
  4502     0AF5  0BA0               	decfsz	??___xxtofl,f
  4503     0AF6  2AF0               	goto	u4825
  4504     0AF7                     l3535:
  4505     0AF7  1BA8               	btfsc	___xxtofl@arg+2,7
  4506     0AF8  2AFA               	goto	u4831
  4507     0AF9  2AFB               	goto	u4830
  4508     0AFA                     u4831:
  4509     0AFA  2B01               	goto	l897
  4510     0AFB                     u4830:
  4511     0AFB                     l3537:
  4512     0AFB  3002               	movlw	2
  4513     0AFC  0225               	subwf	___xxtofl@exp,w
  4514     0AFD  1803               	skipnc
  4515     0AFE  2B00               	goto	u4841
  4516     0AFF  2B01               	goto	u4840
  4517     0B00                     u4841:
  4518     0B00  2AEC               	goto	l3533
  4519     0B01                     u4840:
  4520     0B01                     l897:
  4521     0B01  1825               	btfsc	___xxtofl@exp,0
  4522     0B02  2B04               	goto	u4851
  4523     0B03  2B05               	goto	u4850
  4524     0B04                     u4851:
  4525     0B04  2B0D               	goto	l898
  4526     0B05                     u4850:
  4527     0B05                     l3539:
  4528     0B05  30FF               	movlw	255
  4529     0B06  05A6               	andwf	___xxtofl@arg,f
  4530     0B07  30FF               	movlw	255
  4531     0B08  05A7               	andwf	___xxtofl@arg+1,f
  4532     0B09  307F               	movlw	127
  4533     0B0A  05A8               	andwf	___xxtofl@arg+2,f
  4534     0B0B  30FF               	movlw	255
  4535     0B0C  05A9               	andwf	___xxtofl@arg+3,f
  4536     0B0D                     l898:
  4537     0B0D  1003               	clrc
  4538     0B0E  0CA5               	rrf	___xxtofl@exp,f
  4539     0B0F                     l3541:
  4540     0B0F  0825               	movf	___xxtofl@exp,w
  4541     0B10  00A0               	movwf	??___xxtofl
  4542     0B11  01A1               	clrf	??___xxtofl+1
  4543     0B12  01A2               	clrf	??___xxtofl+2
  4544     0B13  01A3               	clrf	??___xxtofl+3
  4545     0B14  3018               	movlw	24
  4546     0B15                     u4865:
  4547     0B15  1003               	clrc
  4548     0B16  0DA0               	rlf	??___xxtofl,f
  4549     0B17  0DA1               	rlf	??___xxtofl+1,f
  4550     0B18  0DA2               	rlf	??___xxtofl+2,f
  4551     0B19  0DA3               	rlf	??___xxtofl+3,f
  4552     0B1A                     u4860:
  4553     0B1A  3EFF               	addlw	-1
  4554     0B1B  1D03               	skipz
  4555     0B1C  2B15               	goto	u4865
  4556     0B1D  0820               	movf	??___xxtofl,w
  4557     0B1E  04A6               	iorwf	___xxtofl@arg,f
  4558     0B1F  0821               	movf	??___xxtofl+1,w
  4559     0B20  04A7               	iorwf	___xxtofl@arg+1,f
  4560     0B21  0822               	movf	??___xxtofl+2,w
  4561     0B22  04A8               	iorwf	___xxtofl@arg+2,f
  4562     0B23  0823               	movf	??___xxtofl+3,w
  4563     0B24  04A9               	iorwf	___xxtofl@arg+3,f
  4564     0B25                     l3543:
  4565     0B25  0824               	movf	___xxtofl@sign,w
  4566     0B26  1903               	btfsc	3,2
  4567     0B27  2B29               	goto	u4871
  4568     0B28  2B2A               	goto	u4870
  4569     0B29                     u4871:
  4570     0B29  2B2F               	goto	l3549
  4571     0B2A                     u4870:
  4572     0B2A                     l3545:
  4573     0B2A  1FF5               	btfss	___xxtofl@val+3,7
  4574     0B2B  2B2D               	goto	u4881
  4575     0B2C  2B2E               	goto	u4880
  4576     0B2D                     u4881:
  4577     0B2D  2B2F               	goto	l3549
  4578     0B2E                     u4880:
  4579     0B2E                     l3547:
  4580     0B2E  17A9               	bsf	___xxtofl@arg+3,7
  4581     0B2F                     l3549:
  4582     0B2F  0829               	movf	___xxtofl@arg+3,w
  4583     0B30  00F5               	movwf	?___xxtofl+3
  4584     0B31  0828               	movf	___xxtofl@arg+2,w
  4585     0B32  00F4               	movwf	?___xxtofl+2
  4586     0B33  0827               	movf	___xxtofl@arg+1,w
  4587     0B34  00F3               	movwf	?___xxtofl+1
  4588     0B35  0826               	movf	___xxtofl@arg,w
  4589     0B36  00F2               	movwf	?___xxtofl
  4590     0B37                     l886:
  4591     0B37  0008               	return
  4592     0B38                     __end_of___xxtofl:
  4593                           
  4594                           	psect	text8
  4595     178A                     __ptext8:	
  4596 ;; *************** function ___fltol *****************
  4597 ;; Defined at:
  4598 ;;		line 43 in file "C:\Program Files\Microchip\xc8\v3.00\pic\sources\c99\common\fltol.c"
  4599 ;; Parameters:    Size  Location     Type
  4600 ;;  f1              4   36[BANK0 ] unsigned char 
  4601 ;; Auto vars:     Size  Location     Type
  4602 ;;  exp1            1    7[COMMON] unsigned char 
  4603 ;;  sign1           1    6[COMMON] unsigned char 
  4604 ;; Return value:  Size  Location     Type
  4605 ;;                  4   36[BANK0 ] long 
  4606 ;; Registers used:
  4607 ;;		wreg, status,2, status,0
  4608 ;; Tracked objects:
  4609 ;;		On entry : 0/0
  4610 ;;		On exit  : 0/0
  4611 ;;		Unchanged: 0/0
  4612 ;; Data sizes:     COMMON   BANK0   BANK1   BANK3   BANK2
  4613 ;;      Params:         0       4       0       0       0
  4614 ;;      Locals:         2       0       0       0       0
  4615 ;;      Temps:          0       4       0       0       0
  4616 ;;      Totals:         2       8       0       0       0
  4617 ;;Total ram usage:       10 bytes
  4618 ;; Hardware stack levels used: 1
  4619 ;; Hardware stack levels required when called: 1
  4620 ;; This function calls:
  4621 ;;		Nothing
  4622 ;; This function is called by:
  4623 ;;		_run_program
  4624 ;; This function uses a non-reentrant model
  4625 ;;
  4626                           
  4627     178A                     ___fltol:	
  4628                           ;psect for function ___fltol
  4629                           
  4630     178A                     l3327:	
  4631                           ;incstack = 0
  4632                           ; Regs used in ___fltol: [wreg+status,2+status,0]
  4633                           
  4634     178A  1003               	clrc
  4635     178B  1283               	bcf	3,5	;RP0=0, select bank0
  4636     178C  1303               	bcf	3,6	;RP1=0, select bank0
  4637     178D  0D46               	rlf	___fltol@f1+2,w
  4638     178E  0D47               	rlf	___fltol@f1+3,w
  4639     178F  00F7               	movwf	___fltol@exp1
  4640     1790  0877               	movf	___fltol@exp1,w
  4641     1791  1D03               	btfss	3,2
  4642     1792  2F94               	goto	u4281
  4643     1793  2F95               	goto	u4280
  4644     1794                     u4281:
  4645     1794  2F9E               	goto	l3333
  4646     1795                     u4280:
  4647     1795                     l3329:
  4648     1795  3000               	movlw	0
  4649     1796  00C7               	movwf	?___fltol+3
  4650     1797  3000               	movlw	0
  4651     1798  00C6               	movwf	?___fltol+2
  4652     1799  3000               	movlw	0
  4653     179A  00C5               	movwf	?___fltol+1
  4654     179B  3000               	movlw	0
  4655     179C  00C4               	movwf	?___fltol
  4656     179D  2FFF               	goto	l637
  4657     179E                     l3333:
  4658     179E  0844               	movf	___fltol@f1,w
  4659     179F  00C8               	movwf	??___fltol
  4660     17A0  0845               	movf	___fltol@f1+1,w
  4661     17A1  00C9               	movwf	??___fltol+1
  4662     17A2  0846               	movf	___fltol@f1+2,w
  4663     17A3  00CA               	movwf	??___fltol+2
  4664     17A4  0847               	movf	___fltol@f1+3,w
  4665     17A5  00CB               	movwf	??___fltol+3
  4666     17A6  301F               	movlw	31
  4667     17A7                     u4295:
  4668     17A7  1003               	clrc
  4669     17A8  0CCB               	rrf	??___fltol+3,f
  4670     17A9  0CCA               	rrf	??___fltol+2,f
  4671     17AA  0CC9               	rrf	??___fltol+1,f
  4672     17AB  0CC8               	rrf	??___fltol,f
  4673     17AC                     u4290:
  4674     17AC  3EFF               	addlw	-1
  4675     17AD  1D03               	skipz
  4676     17AE  2FA7               	goto	u4295
  4677     17AF  0848               	movf	??___fltol,w
  4678     17B0  00F6               	movwf	___fltol@sign1
  4679     17B1                     l3335:
  4680     17B1  17C6               	bsf	___fltol@f1+2,7
  4681     17B2                     l3337:
  4682     17B2  30FF               	movlw	255
  4683     17B3  05C4               	andwf	___fltol@f1,f
  4684     17B4  30FF               	movlw	255
  4685     17B5  05C5               	andwf	___fltol@f1+1,f
  4686     17B6  30FF               	movlw	255
  4687     17B7  05C6               	andwf	___fltol@f1+2,f
  4688     17B8  3000               	movlw	0
  4689     17B9  05C7               	andwf	___fltol@f1+3,f
  4690     17BA                     l3339:
  4691     17BA  3096               	movlw	150
  4692     17BB  02F7               	subwf	___fltol@exp1,f
  4693     17BC                     l3341:
  4694     17BC  1FF7               	btfss	___fltol@exp1,7
  4695     17BD  2FBF               	goto	u4301
  4696     17BE  2FC0               	goto	u4300
  4697     17BF                     u4301:
  4698     17BF  2FD8               	goto	l3351
  4699     17C0                     u4300:
  4700     17C0                     l3343:
  4701     17C0  0877               	movf	___fltol@exp1,w
  4702     17C1  3A80               	xorlw	128
  4703     17C2  3E97               	addlw	151
  4704     17C3  1803               	skipnc
  4705     17C4  2FC6               	goto	u4311
  4706     17C5  2FC7               	goto	u4310
  4707     17C6                     u4311:
  4708     17C6  2FC8               	goto	l3349
  4709     17C7                     u4310:
  4710     17C7  2F95               	goto	l3329
  4711     17C8                     l3349:
  4712     17C8  3001               	movlw	1
  4713     17C9                     u4325:
  4714     17C9  1003               	clrc
  4715     17CA  0CC7               	rrf	___fltol@f1+3,f
  4716     17CB  0CC6               	rrf	___fltol@f1+2,f
  4717     17CC  0CC5               	rrf	___fltol@f1+1,f
  4718     17CD  0CC4               	rrf	___fltol@f1,f
  4719     17CE  3EFF               	addlw	-1
  4720     17CF  1D03               	skipz
  4721     17D0  2FC9               	goto	u4325
  4722     17D1  3001               	movlw	1
  4723     17D2  07F7               	addwf	___fltol@exp1,f
  4724     17D3  1D03               	btfss	3,2
  4725     17D4  2FD6               	goto	u4331
  4726     17D5  2FD7               	goto	u4330
  4727     17D6                     u4331:
  4728     17D6  2FC8               	goto	l3349
  4729     17D7                     u4330:
  4730     17D7  2FEF               	goto	l3359
  4731     17D8                     l3351:
  4732     17D8  3020               	movlw	32
  4733     17D9  0277               	subwf	___fltol@exp1,w
  4734     17DA  1C03               	skipc
  4735     17DB  2FDD               	goto	u4341
  4736     17DC  2FDE               	goto	u4340
  4737     17DD                     u4341:
  4738     17DD  2FEA               	goto	l644
  4739     17DE                     u4340:
  4740     17DE  2F95               	goto	l3329
  4741     17DF                     l3357:
  4742     17DF  3001               	movlw	1
  4743     17E0  00C8               	movwf	??___fltol
  4744     17E1                     u4355:
  4745     17E1  1003               	clrc
  4746     17E2  0DC4               	rlf	___fltol@f1,f
  4747     17E3  0DC5               	rlf	___fltol@f1+1,f
  4748     17E4  0DC6               	rlf	___fltol@f1+2,f
  4749     17E5  0DC7               	rlf	___fltol@f1+3,f
  4750     17E6  0BC8               	decfsz	??___fltol,f
  4751     17E7  2FE1               	goto	u4355
  4752     17E8  3001               	movlw	1
  4753     17E9  02F7               	subwf	___fltol@exp1,f
  4754     17EA                     l644:
  4755     17EA  0877               	movf	___fltol@exp1,w
  4756     17EB  1D03               	btfss	3,2
  4757     17EC  2FEE               	goto	u4361
  4758     17ED  2FEF               	goto	u4360
  4759     17EE                     u4361:
  4760     17EE  2FDF               	goto	l3357
  4761     17EF                     u4360:
  4762     17EF                     l3359:
  4763     17EF  0876               	movf	___fltol@sign1,w
  4764     17F0  1903               	btfsc	3,2
  4765     17F1  2FF3               	goto	u4371
  4766     17F2  2FF4               	goto	u4370
  4767     17F3                     u4371:
  4768     17F3  2FFF               	goto	l647
  4769     17F4                     u4370:
  4770     17F4                     l3361:
  4771     17F4  09C4               	comf	___fltol@f1,f
  4772     17F5  09C5               	comf	___fltol@f1+1,f
  4773     17F6  09C6               	comf	___fltol@f1+2,f
  4774     17F7  09C7               	comf	___fltol@f1+3,f
  4775     17F8  0AC4               	incf	___fltol@f1,f
  4776     17F9  1903               	skipnz
  4777     17FA  0AC5               	incf	___fltol@f1+1,f
  4778     17FB  1903               	skipnz
  4779     17FC  0AC6               	incf	___fltol@f1+2,f
  4780     17FD  1903               	skipnz
  4781     17FE  0AC7               	incf	___fltol@f1+3,f
  4782     17FF                     l647:
  4783     17FF                     l637:
  4784     17FF  0008               	return
  4785     1800                     __end_of___fltol:
  4786                           
  4787                           	psect	text9
  4788     1559                     __ptext9:	
  4789 ;; *************** function ___flsub *****************
  4790 ;; Defined at:
  4791 ;;		line 242 in file "C:\Program Files\Microchip\xc8\v3.00\pic\sources\c99\common\sprcadd.c"
  4792 ;; Parameters:    Size  Location     Type
  4793 ;;  a               4   36[BANK0 ] long 
  4794 ;;  b               4   40[BANK0 ] long 
  4795 ;; Auto vars:     Size  Location     Type
  4796 ;;		None
  4797 ;; Return value:  Size  Location     Type
  4798 ;;                  4   36[BANK0 ] long 
  4799 ;; Registers used:
  4800 ;;		wreg, status,2, status,0, btemp+1, pclath, cstack
  4801 ;; Tracked objects:
  4802 ;;		On entry : 0/0
  4803 ;;		On exit  : 0/0
  4804 ;;		Unchanged: 0/0
  4805 ;; Data sizes:     COMMON   BANK0   BANK1   BANK3   BANK2
  4806 ;;      Params:         0       8       0       0       0
  4807 ;;      Locals:         0       0       0       0       0
  4808 ;;      Temps:          0       0       0       0       0
  4809 ;;      Totals:         0       8       0       0       0
  4810 ;;Total ram usage:        8 bytes
  4811 ;; Hardware stack levels used: 1
  4812 ;; Hardware stack levels required when called: 2
  4813 ;; This function calls:
  4814 ;;		___fladd
  4815 ;; This function is called by:
  4816 ;;		_run_program
  4817 ;; This function uses a non-reentrant model
  4818 ;;
  4819                           
  4820     1559                     ___flsub:	
  4821                           ;psect for function ___flsub
  4822                           
  4823     1559                     l3363:	
  4824                           ;incstack = 0
  4825                           ; Regs used in ___flsub: [wreg+status,2+status,0+btemp+1+pclath+cstack]
  4826                           
  4827     1559  3080               	movlw	128
  4828     155A  1283               	bcf	3,5	;RP0=0, select bank0
  4829     155B  1303               	bcf	3,6	;RP1=0, select bank0
  4830     155C  06C7               	xorwf	___flsub@a+3,f
  4831     155D                     l3365:
  4832     155D  084B               	movf	___flsub@b+3,w
  4833     155E  00A3               	movwf	___fladd@b+3
  4834     155F  084A               	movf	___flsub@b+2,w
  4835     1560  00A2               	movwf	___fladd@b+2
  4836     1561  0849               	movf	___flsub@b+1,w
  4837     1562  00A1               	movwf	___fladd@b+1
  4838     1563  0848               	movf	___flsub@b,w
  4839     1564  00A0               	movwf	___fladd@b
  4840     1565  0847               	movf	___flsub@a+3,w
  4841     1566  00A7               	movwf	___fladd@a+3
  4842     1567  0846               	movf	___flsub@a+2,w
  4843     1568  00A6               	movwf	___fladd@a+2
  4844     1569  0845               	movf	___flsub@a+1,w
  4845     156A  00A5               	movwf	___fladd@a+1
  4846     156B  0844               	movf	___flsub@a,w
  4847     156C  00A4               	movwf	___fladd@a
  4848     156D  120A  158A  25A8  160A  118A  	fcall	___fladd
  4849     1572  1283               	bcf	3,5	;RP0=0, select bank0
  4850     1573  1303               	bcf	3,6	;RP1=0, select bank0
  4851     1574  0823               	movf	?___fladd+3,w
  4852     1575  00C7               	movwf	?___flsub+3
  4853     1576  0822               	movf	?___fladd+2,w
  4854     1577  00C6               	movwf	?___flsub+2
  4855     1578  0821               	movf	?___fladd+1,w
  4856     1579  00C5               	movwf	?___flsub+1
  4857     157A  0820               	movf	?___fladd,w
  4858     157B  00C4               	movwf	?___flsub
  4859     157C                     l790:
  4860     157C  0008               	return
  4861     157D                     __end_of___flsub:
  4862                           
  4863                           	psect	text10
  4864     0DA8                     __ptext10:	
  4865 ;; *************** function ___fladd *****************
  4866 ;; Defined at:
  4867 ;;		line 10 in file "C:\Program Files\Microchip\xc8\v3.00\pic\sources\c99\common\sprcadd.c"
  4868 ;; Parameters:    Size  Location     Type
  4869 ;;  b               4    0[BANK0 ] long 
  4870 ;;  a               4    4[BANK0 ] long 
  4871 ;; Auto vars:     Size  Location     Type
  4872 ;;  grs             1    5[COMMON] unsigned char 
  4873 ;;  bexp            1    4[COMMON] unsigned char 
  4874 ;;  aexp            1    3[COMMON] unsigned char 
  4875 ;;  signs           1    2[COMMON] unsigned char 
  4876 ;; Return value:  Size  Location     Type
  4877 ;;                  4    0[BANK0 ] unsigned char 
  4878 ;; Registers used:
  4879 ;;		wreg, status,2, status,0, btemp+1
  4880 ;; Tracked objects:
  4881 ;;		On entry : 0/0
  4882 ;;		On exit  : 0/0
  4883 ;;		Unchanged: 0/0
  4884 ;; Data sizes:     COMMON   BANK0   BANK1   BANK3   BANK2
  4885 ;;      Params:         0       8       0       0       0
  4886 ;;      Locals:         4       0       0       0       0
  4887 ;;      Temps:          0       8       0       0       0
  4888 ;;      Totals:         4      16       0       0       0
  4889 ;;Total ram usage:       20 bytes
  4890 ;; Hardware stack levels used: 1
  4891 ;; Hardware stack levels required when called: 1
  4892 ;; This function calls:
  4893 ;;		Nothing
  4894 ;; This function is called by:
  4895 ;;		___flsub
  4896 ;; This function uses a non-reentrant model
  4897 ;;
  4898                           
  4899     0DA8                     ___fladd:	
  4900                           ;psect for function ___fladd
  4901                           
  4902     0DA8                     l2963:	
  4903                           ;incstack = 0
  4904                           ; Regs used in ___fladd: [wreg+status,2+status,0+btemp+1]
  4905                           
  4906     0DA8  1283               	bcf	3,5	;RP0=0, select bank0
  4907     0DA9  1303               	bcf	3,6	;RP1=0, select bank0
  4908     0DAA  0823               	movf	___fladd@b+3,w
  4909     0DAB  00F2               	movwf	___fladd@signs
  4910     0DAC                     l2965:
  4911     0DAC  3080               	movlw	128
  4912     0DAD  05F2               	andwf	___fladd@signs,f
  4913     0DAE                     l2967:
  4914     0DAE  0823               	movf	___fladd@b+3,w
  4915     0DAF  00A8               	movwf	??___fladd
  4916     0DB0  0728               	addwf	??___fladd,w
  4917     0DB1  00F4               	movwf	___fladd@bexp
  4918     0DB2                     l2969:
  4919     0DB2  1FA2               	btfss	___fladd@b+2,7
  4920     0DB3  2DB5               	goto	u3491
  4921     0DB4  2DB6               	goto	u3490
  4922     0DB5                     u3491:
  4923     0DB5  2DB7               	goto	l2973
  4924     0DB6                     u3490:
  4925     0DB6                     l2971:
  4926     0DB6  1474               	bsf	___fladd@bexp,0
  4927     0DB7                     l2973:
  4928     0DB7  0874               	movf	___fladd@bexp,w
  4929     0DB8  1903               	btfsc	3,2
  4930     0DB9  2DBB               	goto	u3501
  4931     0DBA  2DBC               	goto	u3500
  4932     0DBB                     u3501:
  4933     0DBB  2DCC               	goto	l2983
  4934     0DBC                     u3500:
  4935     0DBC                     l2975:
  4936     0DBC  0A74               	incf	___fladd@bexp,w
  4937     0DBD  1D03               	btfss	3,2
  4938     0DBE  2DC0               	goto	u3511
  4939     0DBF  2DC1               	goto	u3510
  4940     0DC0                     u3511:
  4941     0DC0  2DC9               	goto	l2979
  4942     0DC1                     u3510:
  4943     0DC1                     l2977:
  4944     0DC1  3000               	movlw	0
  4945     0DC2  00A3               	movwf	___fladd@b+3
  4946     0DC3  3000               	movlw	0
  4947     0DC4  00A2               	movwf	___fladd@b+2
  4948     0DC5  3000               	movlw	0
  4949     0DC6  00A1               	movwf	___fladd@b+1
  4950     0DC7  3000               	movlw	0
  4951     0DC8  00A0               	movwf	___fladd@b
  4952     0DC9                     l2979:
  4953     0DC9  17A2               	bsf	___fladd@b+2,7
  4954     0DCA                     l2981:
  4955     0DCA  01A3               	clrf	___fladd@b+3
  4956     0DCB  2DD4               	goto	l739
  4957     0DCC                     l2983:
  4958     0DCC  3000               	movlw	0
  4959     0DCD  00A3               	movwf	___fladd@b+3
  4960     0DCE  3000               	movlw	0
  4961     0DCF  00A2               	movwf	___fladd@b+2
  4962     0DD0  3000               	movlw	0
  4963     0DD1  00A1               	movwf	___fladd@b+1
  4964     0DD2  3000               	movlw	0
  4965     0DD3  00A0               	movwf	___fladd@b
  4966     0DD4                     l739:
  4967     0DD4  0827               	movf	___fladd@a+3,w
  4968     0DD5  00F3               	movwf	___fladd@aexp
  4969     0DD6                     l2985:
  4970     0DD6  3080               	movlw	128
  4971     0DD7  05F3               	andwf	___fladd@aexp,f
  4972     0DD8                     l2987:
  4973     0DD8  0873               	movf	___fladd@aexp,w
  4974     0DD9  0672               	xorwf	___fladd@signs,w
  4975     0DDA  1903               	skipnz
  4976     0DDB  2DDD               	goto	u3521
  4977     0DDC  2DDE               	goto	u3520
  4978     0DDD                     u3521:
  4979     0DDD  2DDF               	goto	l2991
  4980     0DDE                     u3520:
  4981     0DDE                     l2989:
  4982     0DDE  1772               	bsf	___fladd@signs,6
  4983     0DDF                     l2991:
  4984     0DDF  0827               	movf	___fladd@a+3,w
  4985     0DE0  00A8               	movwf	??___fladd
  4986     0DE1  0728               	addwf	??___fladd,w
  4987     0DE2  00F3               	movwf	___fladd@aexp
  4988     0DE3                     l2993:
  4989     0DE3  1FA6               	btfss	___fladd@a+2,7
  4990     0DE4  2DE6               	goto	u3531
  4991     0DE5  2DE7               	goto	u3530
  4992     0DE6                     u3531:
  4993     0DE6  2DE8               	goto	l2997
  4994     0DE7                     u3530:
  4995     0DE7                     l2995:
  4996     0DE7  1473               	bsf	___fladd@aexp,0
  4997     0DE8                     l2997:
  4998     0DE8  0873               	movf	___fladd@aexp,w
  4999     0DE9  1903               	btfsc	3,2
  5000     0DEA  2DEC               	goto	u3541
  5001     0DEB  2DED               	goto	u3540
  5002     0DEC                     u3541:
  5003     0DEC  2DFD               	goto	l3007
  5004     0DED                     u3540:
  5005     0DED                     l2999:
  5006     0DED  0A73               	incf	___fladd@aexp,w
  5007     0DEE  1D03               	btfss	3,2
  5008     0DEF  2DF1               	goto	u3551
  5009     0DF0  2DF2               	goto	u3550
  5010     0DF1                     u3551:
  5011     0DF1  2DFA               	goto	l3003
  5012     0DF2                     u3550:
  5013     0DF2                     l3001:
  5014     0DF2  3000               	movlw	0
  5015     0DF3  00A7               	movwf	___fladd@a+3
  5016     0DF4  3000               	movlw	0
  5017     0DF5  00A6               	movwf	___fladd@a+2
  5018     0DF6  3000               	movlw	0
  5019     0DF7  00A5               	movwf	___fladd@a+1
  5020     0DF8  3000               	movlw	0
  5021     0DF9  00A4               	movwf	___fladd@a
  5022     0DFA                     l3003:
  5023     0DFA  17A6               	bsf	___fladd@a+2,7
  5024     0DFB                     l3005:
  5025     0DFB  01A7               	clrf	___fladd@a+3
  5026     0DFC  2E05               	goto	l744
  5027     0DFD                     l3007:
  5028     0DFD  3000               	movlw	0
  5029     0DFE  00A7               	movwf	___fladd@a+3
  5030     0DFF  3000               	movlw	0
  5031     0E00  00A6               	movwf	___fladd@a+2
  5032     0E01  3000               	movlw	0
  5033     0E02  00A5               	movwf	___fladd@a+1
  5034     0E03  3000               	movlw	0
  5035     0E04  00A4               	movwf	___fladd@a
  5036     0E05                     l744:
  5037     0E05  0874               	movf	___fladd@bexp,w
  5038     0E06  0273               	subwf	___fladd@aexp,w
  5039     0E07  1803               	skipnc
  5040     0E08  2E0A               	goto	u3561
  5041     0E09  2E0B               	goto	u3560
  5042     0E0A                     u3561:
  5043     0E0A  2E2F               	goto	l3043
  5044     0E0B                     u3560:
  5045     0E0B                     l3009:
  5046     0E0B  1F72               	btfss	___fladd@signs,6
  5047     0E0C  2E0E               	goto	u3571
  5048     0E0D  2E0F               	goto	u3570
  5049     0E0E                     u3571:
  5050     0E0E  2E11               	goto	l3013
  5051     0E0F                     u3570:
  5052     0E0F                     l3011:
  5053     0E0F  3080               	movlw	128
  5054     0E10  06F2               	xorwf	___fladd@signs,f
  5055     0E11                     l3013:
  5056     0E11  0874               	movf	___fladd@bexp,w
  5057     0E12  00F5               	movwf	___fladd@grs
  5058     0E13                     l3015:
  5059     0E13  0873               	movf	___fladd@aexp,w
  5060     0E14  00F4               	movwf	___fladd@bexp
  5061     0E15                     l3017:
  5062     0E15  0875               	movf	___fladd@grs,w
  5063     0E16  00F3               	movwf	___fladd@aexp
  5064     0E17                     l3019:
  5065     0E17  0820               	movf	___fladd@b,w
  5066     0E18  00F5               	movwf	___fladd@grs
  5067     0E19                     l3021:
  5068     0E19  0824               	movf	___fladd@a,w
  5069     0E1A  00A0               	movwf	___fladd@b
  5070     0E1B                     l3023:
  5071     0E1B  0875               	movf	___fladd@grs,w
  5072     0E1C  00A4               	movwf	___fladd@a
  5073     0E1D                     l3025:
  5074     0E1D  0821               	movf	___fladd@b+1,w
  5075     0E1E  00F5               	movwf	___fladd@grs
  5076     0E1F                     l3027:
  5077     0E1F  0825               	movf	___fladd@a+1,w
  5078     0E20  00A1               	movwf	___fladd@b+1
  5079     0E21                     l3029:
  5080     0E21  0875               	movf	___fladd@grs,w
  5081     0E22  00A5               	movwf	___fladd@a+1
  5082     0E23                     l3031:
  5083     0E23  0822               	movf	___fladd@b+2,w
  5084     0E24  00F5               	movwf	___fladd@grs
  5085     0E25                     l3033:
  5086     0E25  0826               	movf	___fladd@a+2,w
  5087     0E26  00A2               	movwf	___fladd@b+2
  5088     0E27                     l3035:
  5089     0E27  0875               	movf	___fladd@grs,w
  5090     0E28  00A6               	movwf	___fladd@a+2
  5091     0E29                     l3037:
  5092     0E29  0823               	movf	___fladd@b+3,w
  5093     0E2A  00F5               	movwf	___fladd@grs
  5094     0E2B                     l3039:
  5095     0E2B  0827               	movf	___fladd@a+3,w
  5096     0E2C  00A3               	movwf	___fladd@b+3
  5097     0E2D                     l3041:
  5098     0E2D  0875               	movf	___fladd@grs,w
  5099     0E2E  00A7               	movwf	___fladd@a+3
  5100     0E2F                     l3043:
  5101     0E2F  01F5               	clrf	___fladd@grs
  5102     0E30                     l3045:
  5103     0E30  0873               	movf	___fladd@aexp,w
  5104     0E31  00A8               	movwf	??___fladd
  5105     0E32  01A9               	clrf	??___fladd+1
  5106     0E33  0829               	movf	??___fladd+1,w
  5107     0E34  00AB               	movwf	??___fladd+3
  5108     0E35  0874               	movf	___fladd@bexp,w
  5109     0E36  0228               	subwf	??___fladd,w
  5110     0E37  00AA               	movwf	??___fladd+2
  5111     0E38  1C03               	skipc
  5112     0E39  03AB               	decf	??___fladd+3,f
  5113     0E3A  082B               	movf	??___fladd+3,w
  5114     0E3B  3A80               	xorlw	128
  5115     0E3C  00FF               	movwf	btemp+1
  5116     0E3D  3080               	movlw	128
  5117     0E3E  027F               	subwf	btemp+1,w
  5118     0E3F  1D03               	skipz
  5119     0E40  2E43               	goto	u3585
  5120     0E41  301A               	movlw	26
  5121     0E42  022A               	subwf	??___fladd+2,w
  5122     0E43                     u3585:
  5123     0E43  1C03               	skipc
  5124     0E44  2E46               	goto	u3581
  5125     0E45  2E47               	goto	u3580
  5126     0E46                     u3581:
  5127     0E46  2E80               	goto	l3061
  5128     0E47                     u3580:
  5129     0E47                     l3047:
  5130     0E47  1283               	bcf	3,5	;RP0=0, select bank0
  5131     0E48  1303               	bcf	3,6	;RP1=0, select bank0
  5132     0E49  0823               	movf	___fladd@b+3,w
  5133     0E4A  0422               	iorwf	___fladd@b+2,w
  5134     0E4B  0421               	iorwf	___fladd@b+1,w
  5135     0E4C  0420               	iorwf	___fladd@b,w
  5136     0E4D  1D03               	skipz
  5137     0E4E  2E50               	goto	u3591
  5138     0E4F  2E52               	goto	u3590
  5139     0E50                     u3591:
  5140     0E50  3001               	movlw	1
  5141     0E51  2E53               	goto	u3600
  5142     0E52                     u3590:
  5143     0E52  3000               	movlw	0
  5144     0E53                     u3600:
  5145     0E53  00F5               	movwf	___fladd@grs
  5146     0E54  3000               	movlw	0
  5147     0E55  00A3               	movwf	___fladd@b+3
  5148     0E56  3000               	movlw	0
  5149     0E57  00A2               	movwf	___fladd@b+2
  5150     0E58  3000               	movlw	0
  5151     0E59  00A1               	movwf	___fladd@b+1
  5152     0E5A  3000               	movlw	0
  5153     0E5B  00A0               	movwf	___fladd@b
  5154     0E5C  0873               	movf	___fladd@aexp,w
  5155     0E5D  00F4               	movwf	___fladd@bexp
  5156     0E5E  2E86               	goto	l748
  5157     0E5F                     l750:
  5158     0E5F  1C75               	btfss	___fladd@grs,0
  5159     0E60  2E62               	goto	u3611
  5160     0E61  2E63               	goto	u3610
  5161     0E62                     u3611:
  5162     0E62  2E6C               	goto	l3051
  5163     0E63                     u3610:
  5164     0E63                     l3049:
  5165     0E63  0875               	movf	___fladd@grs,w
  5166     0E64  1283               	bcf	3,5	;RP0=0, select bank0
  5167     0E65  1303               	bcf	3,6	;RP1=0, select bank0
  5168     0E66  00A8               	movwf	??___fladd
  5169     0E67  1003               	clrc
  5170     0E68  0C28               	rrf	??___fladd,w
  5171     0E69  3801               	iorlw	1
  5172     0E6A  00F5               	movwf	___fladd@grs
  5173     0E6B  2E6E               	goto	l3053
  5174     0E6C                     l3051:
  5175     0E6C  1003               	clrc
  5176     0E6D  0CF5               	rrf	___fladd@grs,f
  5177     0E6E                     l3053:
  5178     0E6E  1283               	bcf	3,5	;RP0=0, select bank0
  5179     0E6F  1303               	bcf	3,6	;RP1=0, select bank0
  5180     0E70  1C20               	btfss	___fladd@b,0
  5181     0E71  2E73               	goto	u3621
  5182     0E72  2E74               	goto	u3620
  5183     0E73                     u3621:
  5184     0E73  2E75               	goto	l3057
  5185     0E74                     u3620:
  5186     0E74                     l3055:
  5187     0E74  17F5               	bsf	___fladd@grs,7
  5188     0E75                     l3057:
  5189     0E75  3001               	movlw	1
  5190     0E76  00A8               	movwf	??___fladd
  5191     0E77                     u3635:
  5192     0E77  0D23               	rlf	___fladd@b+3,w
  5193     0E78  0CA3               	rrf	___fladd@b+3,f
  5194     0E79  0CA2               	rrf	___fladd@b+2,f
  5195     0E7A  0CA1               	rrf	___fladd@b+1,f
  5196     0E7B  0CA0               	rrf	___fladd@b,f
  5197     0E7C  0BA8               	decfsz	??___fladd& (0+127),f
  5198     0E7D  2E77               	goto	u3635
  5199     0E7E                     l3059:
  5200     0E7E  3001               	movlw	1
  5201     0E7F  07F4               	addwf	___fladd@bexp,f
  5202     0E80                     l3061:
  5203     0E80  0873               	movf	___fladd@aexp,w
  5204     0E81  0274               	subwf	___fladd@bexp,w
  5205     0E82  1C03               	skipc
  5206     0E83  2E85               	goto	u3641
  5207     0E84  2E86               	goto	u3640
  5208     0E85                     u3641:
  5209     0E85  2E5F               	goto	l750
  5210     0E86                     u3640:
  5211     0E86                     l748:
  5212     0E86  1B72               	btfsc	___fladd@signs,6
  5213     0E87  2E89               	goto	u3651
  5214     0E88  2E8A               	goto	u3650
  5215     0E89                     u3651:
  5216     0E89  2ED5               	goto	l3087
  5217     0E8A                     u3650:
  5218     0E8A                     l3063:
  5219     0E8A  0874               	movf	___fladd@bexp,w
  5220     0E8B  1D03               	btfss	3,2
  5221     0E8C  2E8E               	goto	u3661
  5222     0E8D  2E8F               	goto	u3660
  5223     0E8E                     u3661:
  5224     0E8E  2E9A               	goto	l3069
  5225     0E8F                     u3660:
  5226     0E8F                     l3065:
  5227     0E8F  3000               	movlw	0
  5228     0E90  1283               	bcf	3,5	;RP0=0, select bank0
  5229     0E91  1303               	bcf	3,6	;RP1=0, select bank0
  5230     0E92  00A3               	movwf	?___fladd+3
  5231     0E93  3000               	movlw	0
  5232     0E94  00A2               	movwf	?___fladd+2
  5233     0E95  3000               	movlw	0
  5234     0E96  00A1               	movwf	?___fladd+1
  5235     0E97  3000               	movlw	0
  5236     0E98  00A0               	movwf	?___fladd
  5237     0E99  2FFF               	goto	l757
  5238     0E9A                     l3069:
  5239     0E9A  1283               	bcf	3,5	;RP0=0, select bank0
  5240     0E9B  1303               	bcf	3,6	;RP1=0, select bank0
  5241     0E9C  0824               	movf	___fladd@a,w
  5242     0E9D  07A0               	addwf	___fladd@b,f
  5243     0E9E  0825               	movf	___fladd@a+1,w
  5244     0E9F  1103               	clrz
  5245     0EA0  1803               	skipnc
  5246     0EA1  3E01               	addlw	1
  5247     0EA2  1903               	skipnz
  5248     0EA3  2EA5               	goto	u3671
  5249     0EA4  07A1               	addwf	___fladd@b+1,f
  5250     0EA5                     u3671:
  5251     0EA5  0826               	movf	___fladd@a+2,w
  5252     0EA6  1103               	clrz
  5253     0EA7  1803               	skipnc
  5254     0EA8  3E01               	addlw	1
  5255     0EA9  1903               	skipnz
  5256     0EAA  2EAC               	goto	u3672
  5257     0EAB  07A2               	addwf	___fladd@b+2,f
  5258     0EAC                     u3672:
  5259     0EAC  0827               	movf	___fladd@a+3,w
  5260     0EAD  1103               	clrz
  5261     0EAE  1803               	skipnc
  5262     0EAF  3E01               	addlw	1
  5263     0EB0  1903               	skipnz
  5264     0EB1  2EB3               	goto	u3673
  5265     0EB2  07A3               	addwf	___fladd@b+3,f
  5266     0EB3                     u3673:
  5267     0EB3                     l3071:
  5268     0EB3  1C23               	btfss	___fladd@b+3,0
  5269     0EB4  2EB6               	goto	u3681
  5270     0EB5  2EB7               	goto	u3680
  5271     0EB6                     u3681:
  5272     0EB6  2F8B               	goto	l3123
  5273     0EB7                     u3680:
  5274     0EB7                     l3073:
  5275     0EB7  1C75               	btfss	___fladd@grs,0
  5276     0EB8  2EBA               	goto	u3691
  5277     0EB9  2EBB               	goto	u3690
  5278     0EBA                     u3691:
  5279     0EBA  2EC2               	goto	l3077
  5280     0EBB                     u3690:
  5281     0EBB                     l3075:
  5282     0EBB  0875               	movf	___fladd@grs,w
  5283     0EBC  00A8               	movwf	??___fladd
  5284     0EBD  1003               	clrc
  5285     0EBE  0C28               	rrf	??___fladd,w
  5286     0EBF  3801               	iorlw	1
  5287     0EC0  00F5               	movwf	___fladd@grs
  5288     0EC1  2EC4               	goto	l3079
  5289     0EC2                     l3077:
  5290     0EC2  1003               	clrc
  5291     0EC3  0CF5               	rrf	___fladd@grs,f
  5292     0EC4                     l3079:
  5293     0EC4  1C20               	btfss	___fladd@b,0
  5294     0EC5  2EC7               	goto	u3701
  5295     0EC6  2EC8               	goto	u3700
  5296     0EC7                     u3701:
  5297     0EC7  2EC9               	goto	l3083
  5298     0EC8                     u3700:
  5299     0EC8                     l3081:
  5300     0EC8  17F5               	bsf	___fladd@grs,7
  5301     0EC9                     l3083:
  5302     0EC9  3001               	movlw	1
  5303     0ECA  00A8               	movwf	??___fladd
  5304     0ECB                     u3715:
  5305     0ECB  0D23               	rlf	___fladd@b+3,w
  5306     0ECC  0CA3               	rrf	___fladd@b+3,f
  5307     0ECD  0CA2               	rrf	___fladd@b+2,f
  5308     0ECE  0CA1               	rrf	___fladd@b+1,f
  5309     0ECF  0CA0               	rrf	___fladd@b,f
  5310     0ED0  0BA8               	decfsz	??___fladd& (0+127),f
  5311     0ED1  2ECB               	goto	u3715
  5312     0ED2                     l3085:
  5313     0ED2  3001               	movlw	1
  5314     0ED3  07F4               	addwf	___fladd@bexp,f
  5315     0ED4  2F8B               	goto	l3123
  5316     0ED5                     l3087:
  5317     0ED5  1283               	bcf	3,5	;RP0=0, select bank0
  5318     0ED6  1303               	bcf	3,6	;RP1=0, select bank0
  5319     0ED7  0823               	movf	___fladd@b+3,w
  5320     0ED8  3A80               	xorlw	128
  5321     0ED9  00FF               	movwf	btemp+1
  5322     0EDA  0827               	movf	___fladd@a+3,w
  5323     0EDB  3A80               	xorlw	128
  5324     0EDC  027F               	subwf	btemp+1,w
  5325     0EDD  1D03               	skipz
  5326     0EDE  2EE9               	goto	u3723
  5327     0EDF  0826               	movf	___fladd@a+2,w
  5328     0EE0  0222               	subwf	___fladd@b+2,w
  5329     0EE1  1D03               	skipz
  5330     0EE2  2EE9               	goto	u3723
  5331     0EE3  0825               	movf	___fladd@a+1,w
  5332     0EE4  0221               	subwf	___fladd@b+1,w
  5333     0EE5  1D03               	skipz
  5334     0EE6  2EE9               	goto	u3723
  5335     0EE7  0824               	movf	___fladd@a,w
  5336     0EE8  0220               	subwf	___fladd@b,w
  5337     0EE9                     u3723:
  5338     0EE9  1803               	skipnc
  5339     0EEA  2EEC               	goto	u3721
  5340     0EEB  2EED               	goto	u3720
  5341     0EEC                     u3721:
  5342     0EEC  2F44               	goto	l3099
  5343     0EED                     u3720:
  5344     0EED                     l3089:
  5345     0EED  30FF               	movlw	255
  5346     0EEE  00A8               	movwf	??___fladd
  5347     0EEF  30FF               	movlw	255
  5348     0EF0  00A9               	movwf	??___fladd+1
  5349     0EF1  30FF               	movlw	255
  5350     0EF2  00AA               	movwf	??___fladd+2
  5351     0EF3  30FF               	movlw	255
  5352     0EF4  00AB               	movwf	??___fladd+3
  5353     0EF5  0824               	movf	___fladd@a,w
  5354     0EF6  00AC               	movwf	??___fladd+4
  5355     0EF7  0825               	movf	___fladd@a+1,w
  5356     0EF8  00AD               	movwf	??___fladd+5
  5357     0EF9  0826               	movf	___fladd@a+2,w
  5358     0EFA  00AE               	movwf	??___fladd+6
  5359     0EFB  0827               	movf	___fladd@a+3,w
  5360     0EFC  00AF               	movwf	??___fladd+7
  5361     0EFD  0820               	movf	___fladd@b,w
  5362     0EFE  02AC               	subwf	??___fladd+4,f
  5363     0EFF  0821               	movf	___fladd@b+1,w
  5364     0F00  1C03               	skipc
  5365     0F01  0F21               	incfsz	___fladd@b+1,w
  5366     0F02  2F04               	goto	u3731
  5367     0F03  2F05               	goto	u3732
  5368     0F04                     u3731:
  5369     0F04  02AD               	subwf	??___fladd+5,f
  5370     0F05                     u3732:
  5371     0F05  0822               	movf	___fladd@b+2,w
  5372     0F06  1C03               	skipc
  5373     0F07  0F22               	incfsz	___fladd@b+2,w
  5374     0F08  2F0A               	goto	u3733
  5375     0F09  2F0B               	goto	u3734
  5376     0F0A                     u3733:
  5377     0F0A  02AE               	subwf	??___fladd+6,f
  5378     0F0B                     u3734:
  5379     0F0B  0823               	movf	___fladd@b+3,w
  5380     0F0C  1C03               	skipc
  5381     0F0D  0F23               	incfsz	___fladd@b+3,w
  5382     0F0E  2F10               	goto	u3735
  5383     0F0F  2F11               	goto	u3736
  5384     0F10                     u3735:
  5385     0F10  02AF               	subwf	??___fladd+7,f
  5386     0F11                     u3736:
  5387     0F11  082C               	movf	??___fladd+4,w
  5388     0F12  07A8               	addwf	??___fladd,f
  5389     0F13  082D               	movf	??___fladd+5,w
  5390     0F14  1803               	skipnc
  5391     0F15  0F2D               	incfsz	??___fladd+5,w
  5392     0F16  2F18               	goto	u3740
  5393     0F17  2F19               	goto	u3741
  5394     0F18                     u3740:
  5395     0F18  07A9               	addwf	??___fladd+1,f
  5396     0F19                     u3741:
  5397     0F19  082E               	movf	??___fladd+6,w
  5398     0F1A  1803               	skipnc
  5399     0F1B  0F2E               	incfsz	??___fladd+6,w
  5400     0F1C  2F1E               	goto	u3742
  5401     0F1D  2F1F               	goto	u3743
  5402     0F1E                     u3742:
  5403     0F1E  07AA               	addwf	??___fladd+2,f
  5404     0F1F                     u3743:
  5405     0F1F  082F               	movf	??___fladd+7,w
  5406     0F20  1803               	skipnc
  5407     0F21  0A2F               	incf	??___fladd+7,w
  5408     0F22  07AB               	addwf	??___fladd+3,f
  5409     0F23  082B               	movf	??___fladd+3,w
  5410     0F24  00A3               	movwf	___fladd@b+3
  5411     0F25  082A               	movf	??___fladd+2,w
  5412     0F26  00A2               	movwf	___fladd@b+2
  5413     0F27  0829               	movf	??___fladd+1,w
  5414     0F28  00A1               	movwf	___fladd@b+1
  5415     0F29  0828               	movf	??___fladd,w
  5416     0F2A  00A0               	movwf	___fladd@b
  5417     0F2B                     l3091:
  5418     0F2B  3080               	movlw	128
  5419     0F2C  06F2               	xorwf	___fladd@signs,f
  5420     0F2D                     l3093:
  5421     0F2D  0375               	decf	___fladd@grs,w
  5422     0F2E  3AFF               	xorlw	255
  5423     0F2F  00F5               	movwf	___fladd@grs
  5424     0F30                     l3095:
  5425     0F30  0875               	movf	___fladd@grs,w
  5426     0F31  1D03               	btfss	3,2
  5427     0F32  2F34               	goto	u3751
  5428     0F33  2F35               	goto	u3750
  5429     0F34                     u3751:
  5430     0F34  2F52               	goto	l765
  5431     0F35                     u3750:
  5432     0F35                     l3097:
  5433     0F35  3001               	movlw	1
  5434     0F36  07A0               	addwf	___fladd@b,f
  5435     0F37  3000               	movlw	0
  5436     0F38  1803               	skipnc
  5437     0F39  3001               	movlw	1
  5438     0F3A  07A1               	addwf	___fladd@b+1,f
  5439     0F3B  3000               	movlw	0
  5440     0F3C  1803               	skipnc
  5441     0F3D  3001               	movlw	1
  5442     0F3E  07A2               	addwf	___fladd@b+2,f
  5443     0F3F  3000               	movlw	0
  5444     0F40  1803               	skipnc
  5445     0F41  3001               	movlw	1
  5446     0F42  07A3               	addwf	___fladd@b+3,f
  5447     0F43  2F52               	goto	l765
  5448     0F44                     l3099:
  5449     0F44  0824               	movf	___fladd@a,w
  5450     0F45  02A0               	subwf	___fladd@b,f
  5451     0F46  0825               	movf	___fladd@a+1,w
  5452     0F47  1C03               	skipc
  5453     0F48  0F25               	incfsz	___fladd@a+1,w
  5454     0F49  02A1               	subwf	___fladd@b+1,f
  5455     0F4A  0826               	movf	___fladd@a+2,w
  5456     0F4B  1C03               	skipc
  5457     0F4C  0F26               	incfsz	___fladd@a+2,w
  5458     0F4D  02A2               	subwf	___fladd@b+2,f
  5459     0F4E  0827               	movf	___fladd@a+3,w
  5460     0F4F  1C03               	skipc
  5461     0F50  0F27               	incfsz	___fladd@a+3,w
  5462     0F51  02A3               	subwf	___fladd@b+3,f
  5463     0F52                     l765:
  5464     0F52  0823               	movf	___fladd@b+3,w
  5465     0F53  0422               	iorwf	___fladd@b+2,w
  5466     0F54  0421               	iorwf	___fladd@b+1,w
  5467     0F55  0420               	iorwf	___fladd@b,w
  5468     0F56  1D03               	skipz
  5469     0F57  2F59               	goto	u3761
  5470     0F58  2F5A               	goto	u3760
  5471     0F59                     u3761:
  5472     0F59  2F87               	goto	l3121
  5473     0F5A                     u3760:
  5474     0F5A                     l3101:
  5475     0F5A  0875               	movf	___fladd@grs,w
  5476     0F5B  1D03               	btfss	3,2
  5477     0F5C  2F5E               	goto	u3771
  5478     0F5D  2F5F               	goto	u3770
  5479     0F5E                     u3771:
  5480     0F5E  2F87               	goto	l3121
  5481     0F5F                     u3770:
  5482     0F5F                     l3103:
  5483     0F5F  3000               	movlw	0
  5484     0F60  00A3               	movwf	?___fladd+3
  5485     0F61  3000               	movlw	0
  5486     0F62  00A2               	movwf	?___fladd+2
  5487     0F63  3000               	movlw	0
  5488     0F64  00A1               	movwf	?___fladd+1
  5489     0F65  3000               	movlw	0
  5490     0F66  00A0               	movwf	?___fladd
  5491     0F67  2FFF               	goto	l757
  5492     0F68                     l3107:
  5493     0F68  3001               	movlw	1
  5494     0F69  00A8               	movwf	??___fladd
  5495     0F6A                     u3785:
  5496     0F6A  1003               	clrc
  5497     0F6B  0DA0               	rlf	___fladd@b,f
  5498     0F6C  0DA1               	rlf	___fladd@b+1,f
  5499     0F6D  0DA2               	rlf	___fladd@b+2,f
  5500     0F6E  0DA3               	rlf	___fladd@b+3,f
  5501     0F6F  0BA8               	decfsz	??___fladd,f
  5502     0F70  2F6A               	goto	u3785
  5503     0F71                     l3109:
  5504     0F71  1FF5               	btfss	___fladd@grs,7
  5505     0F72  2F74               	goto	u3791
  5506     0F73  2F75               	goto	u3790
  5507     0F74                     u3791:
  5508     0F74  2F76               	goto	l769
  5509     0F75                     u3790:
  5510     0F75                     l3111:
  5511     0F75  1420               	bsf	___fladd@b,0
  5512     0F76                     l769:
  5513     0F76  1C75               	btfss	___fladd@grs,0
  5514     0F77  2F79               	goto	u3801
  5515     0F78  2F7A               	goto	u3800
  5516     0F79                     u3801:
  5517     0F79  2F7E               	goto	l3115
  5518     0F7A                     u3800:
  5519     0F7A                     l3113:
  5520     0F7A  1403               	setc
  5521     0F7B  0D75               	rlf	___fladd@grs,w
  5522     0F7C  00F5               	movwf	___fladd@grs
  5523     0F7D  2F80               	goto	l3117
  5524     0F7E                     l3115:
  5525     0F7E  1003               	clrc
  5526     0F7F  0DF5               	rlf	___fladd@grs,f
  5527     0F80                     l3117:
  5528     0F80  0874               	movf	___fladd@bexp,w
  5529     0F81  1903               	btfsc	3,2
  5530     0F82  2F84               	goto	u3811
  5531     0F83  2F85               	goto	u3810
  5532     0F84                     u3811:
  5533     0F84  2F87               	goto	l3121
  5534     0F85                     u3810:
  5535     0F85                     l3119:
  5536     0F85  3001               	movlw	1
  5537     0F86  02F4               	subwf	___fladd@bexp,f
  5538     0F87                     l3121:
  5539     0F87  1FA2               	btfss	___fladd@b+2,7
  5540     0F88  2F8A               	goto	u3821
  5541     0F89  2F8B               	goto	u3820
  5542     0F8A                     u3821:
  5543     0F8A  2F68               	goto	l3107
  5544     0F8B                     u3820:
  5545     0F8B                     l3123:
  5546     0F8B  01F3               	clrf	___fladd@aexp
  5547     0F8C                     l3125:
  5548     0F8C  1FF5               	btfss	___fladd@grs,7
  5549     0F8D  2F8F               	goto	u3831
  5550     0F8E  2F90               	goto	u3830
  5551     0F8F                     u3831:
  5552     0F8F  2F9E               	goto	l3133
  5553     0F90                     u3830:
  5554     0F90                     l3127:
  5555     0F90  0875               	movf	___fladd@grs,w
  5556     0F91  397F               	andlw	127
  5557     0F92  1903               	btfsc	3,2
  5558     0F93  2F95               	goto	u3841
  5559     0F94  2F96               	goto	u3840
  5560     0F95                     u3841:
  5561     0F95  2F99               	goto	l775
  5562     0F96                     u3840:
  5563     0F96                     l3129:
  5564     0F96  3001               	movlw	1
  5565     0F97  00F3               	movwf	___fladd@aexp
  5566     0F98  2F9E               	goto	l3133
  5567     0F99                     l775:
  5568     0F99  1C20               	btfss	___fladd@b,0
  5569     0F9A  2F9C               	goto	u3851
  5570     0F9B  2F9D               	goto	u3850
  5571     0F9C                     u3851:
  5572     0F9C  2F9E               	goto	l3133
  5573     0F9D                     u3850:
  5574     0F9D  2F96               	goto	l3129
  5575     0F9E                     l3133:
  5576     0F9E  0873               	movf	___fladd@aexp,w
  5577     0F9F  1903               	btfsc	3,2
  5578     0FA0  2FA2               	goto	u3861
  5579     0FA1  2FA3               	goto	u3860
  5580     0FA2                     u3861:
  5581     0FA2  2FD5               	goto	l778
  5582     0FA3                     u3860:
  5583     0FA3                     l3135:
  5584     0FA3  3001               	movlw	1
  5585     0FA4  07A0               	addwf	___fladd@b,f
  5586     0FA5  3000               	movlw	0
  5587     0FA6  1803               	skipnc
  5588     0FA7  3001               	movlw	1
  5589     0FA8  07A1               	addwf	___fladd@b+1,f
  5590     0FA9  3000               	movlw	0
  5591     0FAA  1803               	skipnc
  5592     0FAB  3001               	movlw	1
  5593     0FAC  07A2               	addwf	___fladd@b+2,f
  5594     0FAD  3000               	movlw	0
  5595     0FAE  1803               	skipnc
  5596     0FAF  3001               	movlw	1
  5597     0FB0  07A3               	addwf	___fladd@b+3,f
  5598     0FB1                     l3137:
  5599     0FB1  1C23               	btfss	___fladd@b+3,0
  5600     0FB2  2FB4               	goto	u3871
  5601     0FB3  2FB5               	goto	u3870
  5602     0FB4                     u3871:
  5603     0FB4  2FD5               	goto	l778
  5604     0FB5                     u3870:
  5605     0FB5                     l3139:
  5606     0FB5  0820               	movf	___fladd@b,w
  5607     0FB6  00A8               	movwf	??___fladd
  5608     0FB7  0821               	movf	___fladd@b+1,w
  5609     0FB8  00A9               	movwf	??___fladd+1
  5610     0FB9  0822               	movf	___fladd@b+2,w
  5611     0FBA  00AA               	movwf	??___fladd+2
  5612     0FBB  0823               	movf	___fladd@b+3,w
  5613     0FBC  00AB               	movwf	??___fladd+3
  5614     0FBD  3001               	movlw	1
  5615     0FBE  00AC               	movwf	??___fladd+4
  5616     0FBF                     u3885:
  5617     0FBF  0D2B               	rlf	??___fladd+3,w
  5618     0FC0  0CAB               	rrf	??___fladd+3,f
  5619     0FC1  0CAA               	rrf	??___fladd+2,f
  5620     0FC2  0CA9               	rrf	??___fladd+1,f
  5621     0FC3  0CA8               	rrf	??___fladd,f
  5622     0FC4                     u3880:
  5623     0FC4  0BAC               	decfsz	??___fladd+4,f
  5624     0FC5  2FBF               	goto	u3885
  5625     0FC6  082B               	movf	??___fladd+3,w
  5626     0FC7  00A3               	movwf	___fladd@b+3
  5627     0FC8  082A               	movf	??___fladd+2,w
  5628     0FC9  00A2               	movwf	___fladd@b+2
  5629     0FCA  0829               	movf	??___fladd+1,w
  5630     0FCB  00A1               	movwf	___fladd@b+1
  5631     0FCC  0828               	movf	??___fladd,w
  5632     0FCD  00A0               	movwf	___fladd@b
  5633     0FCE  0A74               	incf	___fladd@bexp,w
  5634     0FCF  1903               	btfsc	3,2
  5635     0FD0  2FD2               	goto	u3891
  5636     0FD1  2FD3               	goto	u3890
  5637     0FD2                     u3891:
  5638     0FD2  2FD5               	goto	l778
  5639     0FD3                     u3890:
  5640     0FD3                     l3141:
  5641     0FD3  3001               	movlw	1
  5642     0FD4  07F4               	addwf	___fladd@bexp,f
  5643     0FD5                     l778:
  5644     0FD5  0A74               	incf	___fladd@bexp,w
  5645     0FD6  1903               	btfsc	3,2
  5646     0FD7  2FD9               	goto	u3901
  5647     0FD8  2FDA               	goto	u3900
  5648     0FD9                     u3901:
  5649     0FD9  2FDF               	goto	l3145
  5650     0FDA                     u3900:
  5651     0FDA                     l3143:
  5652     0FDA  0874               	movf	___fladd@bexp,w
  5653     0FDB  1D03               	btfss	3,2
  5654     0FDC  2FDE               	goto	u3911
  5655     0FDD  2FDF               	goto	u3910
  5656     0FDE                     u3911:
  5657     0FDE  2FED               	goto	l3151
  5658     0FDF                     u3910:
  5659     0FDF                     l3145:
  5660     0FDF  3000               	movlw	0
  5661     0FE0  00A3               	movwf	___fladd@b+3
  5662     0FE1  3000               	movlw	0
  5663     0FE2  00A2               	movwf	___fladd@b+2
  5664     0FE3  3000               	movlw	0
  5665     0FE4  00A1               	movwf	___fladd@b+1
  5666     0FE5  3000               	movlw	0
  5667     0FE6  00A0               	movwf	___fladd@b
  5668     0FE7                     l3147:
  5669     0FE7  0874               	movf	___fladd@bexp,w
  5670     0FE8  1D03               	btfss	3,2
  5671     0FE9  2FEB               	goto	u3921
  5672     0FEA  2FEC               	goto	u3920
  5673     0FEB                     u3921:
  5674     0FEB  2FED               	goto	l3151
  5675     0FEC                     u3920:
  5676     0FEC                     l3149:
  5677     0FEC  01F2               	clrf	___fladd@signs
  5678     0FED                     l3151:
  5679     0FED  1C74               	btfss	___fladd@bexp,0
  5680     0FEE  2FF0               	goto	u3931
  5681     0FEF  2FF1               	goto	u3930
  5682     0FF0                     u3931:
  5683     0FF0  2FF3               	goto	l3155
  5684     0FF1                     u3930:
  5685     0FF1                     l3153:
  5686     0FF1  17A2               	bsf	___fladd@b+2,7
  5687     0FF2  2FF5               	goto	l786
  5688     0FF3                     l3155:
  5689     0FF3  307F               	movlw	127
  5690     0FF4  05A2               	andwf	___fladd@b+2,f
  5691     0FF5                     l786:
  5692     0FF5  0874               	movf	___fladd@bexp,w
  5693     0FF6  00A8               	movwf	??___fladd
  5694     0FF7  1003               	clrc
  5695     0FF8  0C28               	rrf	??___fladd,w
  5696     0FF9  00A3               	movwf	___fladd@b+3
  5697     0FFA                     l3157:
  5698     0FFA  1FF2               	btfss	___fladd@signs,7
  5699     0FFB  2FFD               	goto	u3941
  5700     0FFC  2FFE               	goto	u3940
  5701     0FFD                     u3941:
  5702     0FFD  2FFF               	goto	l787
  5703     0FFE                     u3940:
  5704     0FFE                     l3159:
  5705     0FFE  17A3               	bsf	___fladd@b+3,7
  5706     0FFF                     l787:
  5707     0FFF                     l757:
  5708     0FFF  0008               	return
  5709     1000                     __end_of___fladd:
  5710                           
  5711                           	psect	text11
  5712     0417                     __ptext11:	
  5713 ;; *************** function ___flmul *****************
  5714 ;; Defined at:
  5715 ;;		line 8 in file "C:\Program Files\Microchip\xc8\v3.00\pic\sources\c99\common\sprcmul.c"
  5716 ;; Parameters:    Size  Location     Type
  5717 ;;  b               4   10[BANK0 ] unsigned char 
  5718 ;;  a               4   14[BANK0 ] unsigned char 
  5719 ;; Auto vars:     Size  Location     Type
  5720 ;;  prod            4   30[BANK0 ] struct .
  5721 ;;  grs             4   25[BANK0 ] unsigned long 
  5722 ;;  temp            2   34[BANK0 ] struct .
  5723 ;;  bexp            1   29[BANK0 ] unsigned char 
  5724 ;;  aexp            1   24[BANK0 ] unsigned char 
  5725 ;;  sign            1   23[BANK0 ] unsigned char 
  5726 ;; Return value:  Size  Location     Type
  5727 ;;                  4   10[BANK0 ] unsigned char 
  5728 ;; Registers used:
  5729 ;;		wreg, status,2, status,0, btemp+1, pclath, cstack
  5730 ;; Tracked objects:
  5731 ;;		On entry : 0/0
  5732 ;;		On exit  : 0/0
  5733 ;;		Unchanged: 0/0
  5734 ;; Data sizes:     COMMON   BANK0   BANK1   BANK3   BANK2
  5735 ;;      Params:         0       8       0       0       0
  5736 ;;      Locals:         0      13       0       0       0
  5737 ;;      Temps:          0       5       0       0       0
  5738 ;;      Totals:         0      26       0       0       0
  5739 ;;Total ram usage:       26 bytes
  5740 ;; Hardware stack levels used: 1
  5741 ;; Hardware stack levels required when called: 2
  5742 ;; This function calls:
  5743 ;;		__Umul8_16
  5744 ;; This function is called by:
  5745 ;;		_run_program
  5746 ;; This function uses a non-reentrant model
  5747 ;;
  5748                           
  5749     0417                     ___flmul:	
  5750                           ;psect for function ___flmul
  5751                           
  5752     0417                     l3369:	
  5753                           ;incstack = 0
  5754                           ; Regs used in ___flmul: [wreg+status,2+status,0+btemp+1+pclath+cstack]
  5755                           
  5756     0417  1283               	bcf	3,5	;RP0=0, select bank0
  5757     0418  1303               	bcf	3,6	;RP1=0, select bank0
  5758     0419  082D               	movf	___flmul@b+3,w
  5759     041A  00B7               	movwf	___flmul@sign
  5760     041B                     l3371:
  5761     041B  3080               	movlw	128
  5762     041C  05B7               	andwf	___flmul@sign,f
  5763     041D                     l3373:
  5764     041D  082D               	movf	___flmul@b+3,w
  5765     041E  00B2               	movwf	??___flmul
  5766     041F  0732               	addwf	??___flmul,w
  5767     0420  00BD               	movwf	___flmul@bexp
  5768     0421                     l3375:
  5769     0421  1FAC               	btfss	___flmul@b+2,7
  5770     0422  2C24               	goto	u4381
  5771     0423  2C25               	goto	u4380
  5772     0424                     u4381:
  5773     0424  2C26               	goto	l3379
  5774     0425                     u4380:
  5775     0425                     l3377:
  5776     0425  143D               	bsf	___flmul@bexp,0
  5777     0426                     l3379:
  5778     0426  083D               	movf	___flmul@bexp,w
  5779     0427  1903               	btfsc	3,2
  5780     0428  2C2A               	goto	u4391
  5781     0429  2C2B               	goto	u4390
  5782     042A                     u4391:
  5783     042A  2C3A               	goto	l3387
  5784     042B                     u4390:
  5785     042B                     l3381:
  5786     042B  0A3D               	incf	___flmul@bexp,w
  5787     042C  1D03               	btfss	3,2
  5788     042D  2C2F               	goto	u4401
  5789     042E  2C30               	goto	u4400
  5790     042F                     u4401:
  5791     042F  2C38               	goto	l3385
  5792     0430                     u4400:
  5793     0430                     l3383:
  5794     0430  3000               	movlw	0
  5795     0431  00AD               	movwf	___flmul@b+3
  5796     0432  3000               	movlw	0
  5797     0433  00AC               	movwf	___flmul@b+2
  5798     0434  3000               	movlw	0
  5799     0435  00AB               	movwf	___flmul@b+1
  5800     0436  3000               	movlw	0
  5801     0437  00AA               	movwf	___flmul@b
  5802     0438                     l3385:
  5803     0438  17AC               	bsf	___flmul@b+2,7
  5804     0439  2C42               	goto	l3389
  5805     043A                     l3387:
  5806     043A  3000               	movlw	0
  5807     043B  00AD               	movwf	___flmul@b+3
  5808     043C  3000               	movlw	0
  5809     043D  00AC               	movwf	___flmul@b+2
  5810     043E  3000               	movlw	0
  5811     043F  00AB               	movwf	___flmul@b+1
  5812     0440  3000               	movlw	0
  5813     0441  00AA               	movwf	___flmul@b
  5814     0442                     l3389:
  5815     0442  0831               	movf	___flmul@a+3,w
  5816     0443  3980               	andlw	128
  5817     0444  06B7               	xorwf	___flmul@sign,f
  5818     0445                     l3391:
  5819     0445  0831               	movf	___flmul@a+3,w
  5820     0446  00B2               	movwf	??___flmul
  5821     0447  0732               	addwf	??___flmul,w
  5822     0448  00B8               	movwf	___flmul@aexp
  5823     0449                     l3393:
  5824     0449  1FB0               	btfss	___flmul@a+2,7
  5825     044A  2C4C               	goto	u4411
  5826     044B  2C4D               	goto	u4410
  5827     044C                     u4411:
  5828     044C  2C4E               	goto	l3397
  5829     044D                     u4410:
  5830     044D                     l3395:
  5831     044D  1438               	bsf	___flmul@aexp,0
  5832     044E                     l3397:
  5833     044E  0838               	movf	___flmul@aexp,w
  5834     044F  1903               	btfsc	3,2
  5835     0450  2C52               	goto	u4421
  5836     0451  2C53               	goto	u4420
  5837     0452                     u4421:
  5838     0452  2C62               	goto	l3405
  5839     0453                     u4420:
  5840     0453                     l3399:
  5841     0453  0A38               	incf	___flmul@aexp,w
  5842     0454  1D03               	btfss	3,2
  5843     0455  2C57               	goto	u4431
  5844     0456  2C58               	goto	u4430
  5845     0457                     u4431:
  5846     0457  2C60               	goto	l3403
  5847     0458                     u4430:
  5848     0458                     l3401:
  5849     0458  3000               	movlw	0
  5850     0459  00B1               	movwf	___flmul@a+3
  5851     045A  3000               	movlw	0
  5852     045B  00B0               	movwf	___flmul@a+2
  5853     045C  3000               	movlw	0
  5854     045D  00AF               	movwf	___flmul@a+1
  5855     045E  3000               	movlw	0
  5856     045F  00AE               	movwf	___flmul@a
  5857     0460                     l3403:
  5858     0460  17B0               	bsf	___flmul@a+2,7
  5859     0461  2C6A               	goto	l3407
  5860     0462                     l3405:
  5861     0462  3000               	movlw	0
  5862     0463  00B1               	movwf	___flmul@a+3
  5863     0464  3000               	movlw	0
  5864     0465  00B0               	movwf	___flmul@a+2
  5865     0466  3000               	movlw	0
  5866     0467  00AF               	movwf	___flmul@a+1
  5867     0468  3000               	movlw	0
  5868     0469  00AE               	movwf	___flmul@a
  5869     046A                     l3407:
  5870     046A  0838               	movf	___flmul@aexp,w
  5871     046B  1903               	btfsc	3,2
  5872     046C  2C6E               	goto	u4441
  5873     046D  2C6F               	goto	u4440
  5874     046E                     u4441:
  5875     046E  2C74               	goto	l3411
  5876     046F                     u4440:
  5877     046F                     l3409:
  5878     046F  083D               	movf	___flmul@bexp,w
  5879     0470  1D03               	btfss	3,2
  5880     0471  2C73               	goto	u4451
  5881     0472  2C74               	goto	u4450
  5882     0473                     u4451:
  5883     0473  2C7D               	goto	l3415
  5884     0474                     u4450:
  5885     0474                     l3411:
  5886     0474  3000               	movlw	0
  5887     0475  00AD               	movwf	?___flmul+3
  5888     0476  3000               	movlw	0
  5889     0477  00AC               	movwf	?___flmul+2
  5890     0478  3000               	movlw	0
  5891     0479  00AB               	movwf	?___flmul+1
  5892     047A  3000               	movlw	0
  5893     047B  00AA               	movwf	?___flmul
  5894     047C  2F58               	goto	l840
  5895     047D                     l3415:
  5896     047D  082A               	movf	___flmul@b,w
  5897     047E  00F2               	movwf	__Umul8_16@multiplicand
  5898     047F  0830               	movf	___flmul@a+2,w
  5899     0480  160A  118A  257D  120A  118A  	fcall	__Umul8_16
  5900     0485  0873               	movf	?__Umul8_16+1,w
  5901     0486  1283               	bcf	3,5	;RP0=0, select bank0
  5902     0487  1303               	bcf	3,6	;RP1=0, select bank0
  5903     0488  00C3               	movwf	___flmul@temp+1
  5904     0489  0872               	movf	?__Umul8_16,w
  5905     048A  00C2               	movwf	___flmul@temp
  5906     048B                     l3417:
  5907     048B  0842               	movf	___flmul@temp,w
  5908     048C  00B2               	movwf	??___flmul
  5909     048D  01B3               	clrf	??___flmul+1
  5910     048E  01B4               	clrf	??___flmul+2
  5911     048F  01B5               	clrf	??___flmul+3
  5912     0490  0835               	movf	??___flmul+3,w
  5913     0491  00BC               	movwf	___flmul@grs+3
  5914     0492  0834               	movf	??___flmul+2,w
  5915     0493  00BB               	movwf	___flmul@grs+2
  5916     0494  0833               	movf	??___flmul+1,w
  5917     0495  00BA               	movwf	___flmul@grs+1
  5918     0496  0832               	movf	??___flmul,w
  5919     0497  00B9               	movwf	___flmul@grs
  5920     0498                     l3419:
  5921     0498  0843               	movf	___flmul@temp+1,w
  5922     0499  00B2               	movwf	??___flmul
  5923     049A  01B3               	clrf	??___flmul+1
  5924     049B  01B4               	clrf	??___flmul+2
  5925     049C  01B5               	clrf	??___flmul+3
  5926     049D  0835               	movf	??___flmul+3,w
  5927     049E  00C1               	movwf	___flmul@prod+3
  5928     049F  0834               	movf	??___flmul+2,w
  5929     04A0  00C0               	movwf	___flmul@prod+2
  5930     04A1  0833               	movf	??___flmul+1,w
  5931     04A2  00BF               	movwf	___flmul@prod+1
  5932     04A3  0832               	movf	??___flmul,w
  5933     04A4  00BE               	movwf	___flmul@prod
  5934     04A5  082B               	movf	___flmul@b+1,w
  5935     04A6  00F2               	movwf	__Umul8_16@multiplicand
  5936     04A7  082F               	movf	___flmul@a+1,w
  5937     04A8  160A  118A  257D  120A  118A  	fcall	__Umul8_16
  5938     04AD  0873               	movf	?__Umul8_16+1,w
  5939     04AE  1283               	bcf	3,5	;RP0=0, select bank0
  5940     04AF  1303               	bcf	3,6	;RP1=0, select bank0
  5941     04B0  00C3               	movwf	___flmul@temp+1
  5942     04B1  0872               	movf	?__Umul8_16,w
  5943     04B2  00C2               	movwf	___flmul@temp
  5944     04B3                     l3421:
  5945     04B3  0842               	movf	___flmul@temp,w
  5946     04B4  00B2               	movwf	??___flmul
  5947     04B5  01B3               	clrf	??___flmul+1
  5948     04B6  01B4               	clrf	??___flmul+2
  5949     04B7  01B5               	clrf	??___flmul+3
  5950     04B8  0832               	movf	??___flmul,w
  5951     04B9  07B9               	addwf	___flmul@grs,f
  5952     04BA  0833               	movf	??___flmul+1,w
  5953     04BB  1103               	clrz
  5954     04BC  1803               	skipnc
  5955     04BD  3E01               	addlw	1
  5956     04BE  1903               	skipnz
  5957     04BF  2CC1               	goto	u4461
  5958     04C0  07BA               	addwf	___flmul@grs+1,f
  5959     04C1                     u4461:
  5960     04C1  0834               	movf	??___flmul+2,w
  5961     04C2  1103               	clrz
  5962     04C3  1803               	skipnc
  5963     04C4  3E01               	addlw	1
  5964     04C5  1903               	skipnz
  5965     04C6  2CC8               	goto	u4462
  5966     04C7  07BB               	addwf	___flmul@grs+2,f
  5967     04C8                     u4462:
  5968     04C8  0835               	movf	??___flmul+3,w
  5969     04C9  1103               	clrz
  5970     04CA  1803               	skipnc
  5971     04CB  3E01               	addlw	1
  5972     04CC  1903               	skipnz
  5973     04CD  2CCF               	goto	u4463
  5974     04CE  07BC               	addwf	___flmul@grs+3,f
  5975     04CF                     u4463:
  5976     04CF                     l3423:
  5977     04CF  0843               	movf	___flmul@temp+1,w
  5978     04D0  00B2               	movwf	??___flmul
  5979     04D1  01B3               	clrf	??___flmul+1
  5980     04D2  01B4               	clrf	??___flmul+2
  5981     04D3  01B5               	clrf	??___flmul+3
  5982     04D4  0832               	movf	??___flmul,w
  5983     04D5  07BE               	addwf	___flmul@prod,f
  5984     04D6  0833               	movf	??___flmul+1,w
  5985     04D7  1103               	clrz
  5986     04D8  1803               	skipnc
  5987     04D9  3E01               	addlw	1
  5988     04DA  1903               	skipnz
  5989     04DB  2CDD               	goto	u4471
  5990     04DC  07BF               	addwf	___flmul@prod+1,f
  5991     04DD                     u4471:
  5992     04DD  0834               	movf	??___flmul+2,w
  5993     04DE  1103               	clrz
  5994     04DF  1803               	skipnc
  5995     04E0  3E01               	addlw	1
  5996     04E1  1903               	skipnz
  5997     04E2  2CE4               	goto	u4472
  5998     04E3  07C0               	addwf	___flmul@prod+2,f
  5999     04E4                     u4472:
  6000     04E4  0835               	movf	??___flmul+3,w
  6001     04E5  1103               	clrz
  6002     04E6  1803               	skipnc
  6003     04E7  3E01               	addlw	1
  6004     04E8  1903               	skipnz
  6005     04E9  2CEB               	goto	u4473
  6006     04EA  07C1               	addwf	___flmul@prod+3,f
  6007     04EB                     u4473:
  6008     04EB  082C               	movf	___flmul@b+2,w
  6009     04EC  00F2               	movwf	__Umul8_16@multiplicand
  6010     04ED  082E               	movf	___flmul@a,w
  6011     04EE  160A  118A  257D  120A  118A  	fcall	__Umul8_16
  6012     04F3  0873               	movf	?__Umul8_16+1,w
  6013     04F4  1283               	bcf	3,5	;RP0=0, select bank0
  6014     04F5  1303               	bcf	3,6	;RP1=0, select bank0
  6015     04F6  00C3               	movwf	___flmul@temp+1
  6016     04F7  0872               	movf	?__Umul8_16,w
  6017     04F8  00C2               	movwf	___flmul@temp
  6018     04F9                     l3425:
  6019     04F9  0842               	movf	___flmul@temp,w
  6020     04FA  00B2               	movwf	??___flmul
  6021     04FB  01B3               	clrf	??___flmul+1
  6022     04FC  01B4               	clrf	??___flmul+2
  6023     04FD  01B5               	clrf	??___flmul+3
  6024     04FE  0832               	movf	??___flmul,w
  6025     04FF  07B9               	addwf	___flmul@grs,f
  6026     0500  0833               	movf	??___flmul+1,w
  6027     0501  1103               	clrz
  6028     0502  1803               	skipnc
  6029     0503  3E01               	addlw	1
  6030     0504  1903               	skipnz
  6031     0505  2D07               	goto	u4481
  6032     0506  07BA               	addwf	___flmul@grs+1,f
  6033     0507                     u4481:
  6034     0507  0834               	movf	??___flmul+2,w
  6035     0508  1103               	clrz
  6036     0509  1803               	skipnc
  6037     050A  3E01               	addlw	1
  6038     050B  1903               	skipnz
  6039     050C  2D0E               	goto	u4482
  6040     050D  07BB               	addwf	___flmul@grs+2,f
  6041     050E                     u4482:
  6042     050E  0835               	movf	??___flmul+3,w
  6043     050F  1103               	clrz
  6044     0510  1803               	skipnc
  6045     0511  3E01               	addlw	1
  6046     0512  1903               	skipnz
  6047     0513  2D15               	goto	u4483
  6048     0514  07BC               	addwf	___flmul@grs+3,f
  6049     0515                     u4483:
  6050     0515                     l3427:
  6051     0515  0843               	movf	___flmul@temp+1,w
  6052     0516  00B2               	movwf	??___flmul
  6053     0517  01B3               	clrf	??___flmul+1
  6054     0518  01B4               	clrf	??___flmul+2
  6055     0519  01B5               	clrf	??___flmul+3
  6056     051A  0832               	movf	??___flmul,w
  6057     051B  07BE               	addwf	___flmul@prod,f
  6058     051C  0833               	movf	??___flmul+1,w
  6059     051D  1103               	clrz
  6060     051E  1803               	skipnc
  6061     051F  3E01               	addlw	1
  6062     0520  1903               	skipnz
  6063     0521  2D23               	goto	u4491
  6064     0522  07BF               	addwf	___flmul@prod+1,f
  6065     0523                     u4491:
  6066     0523  0834               	movf	??___flmul+2,w
  6067     0524  1103               	clrz
  6068     0525  1803               	skipnc
  6069     0526  3E01               	addlw	1
  6070     0527  1903               	skipnz
  6071     0528  2D2A               	goto	u4492
  6072     0529  07C0               	addwf	___flmul@prod+2,f
  6073     052A                     u4492:
  6074     052A  0835               	movf	??___flmul+3,w
  6075     052B  1103               	clrz
  6076     052C  1803               	skipnc
  6077     052D  3E01               	addlw	1
  6078     052E  1903               	skipnz
  6079     052F  2D31               	goto	u4493
  6080     0530  07C1               	addwf	___flmul@prod+3,f
  6081     0531                     u4493:
  6082     0531                     l3429:
  6083     0531  3008               	movlw	8
  6084     0532  00B2               	movwf	??___flmul
  6085     0533                     u4505:
  6086     0533  1003               	clrc
  6087     0534  0DB9               	rlf	___flmul@grs,f
  6088     0535  0DBA               	rlf	___flmul@grs+1,f
  6089     0536  0DBB               	rlf	___flmul@grs+2,f
  6090     0537  0DBC               	rlf	___flmul@grs+3,f
  6091     0538  0BB2               	decfsz	??___flmul,f
  6092     0539  2D33               	goto	u4505
  6093     053A                     l3431:
  6094     053A  082B               	movf	___flmul@b+1,w
  6095     053B  00F2               	movwf	__Umul8_16@multiplicand
  6096     053C  082E               	movf	___flmul@a,w
  6097     053D  160A  118A  257D  120A  118A  	fcall	__Umul8_16
  6098     0542  0873               	movf	?__Umul8_16+1,w
  6099     0543  1283               	bcf	3,5	;RP0=0, select bank0
  6100     0544  1303               	bcf	3,6	;RP1=0, select bank0
  6101     0545  00C3               	movwf	___flmul@temp+1
  6102     0546  0872               	movf	?__Umul8_16,w
  6103     0547  00C2               	movwf	___flmul@temp
  6104     0548                     l3433:
  6105     0548  0842               	movf	___flmul@temp,w
  6106     0549  00B2               	movwf	??___flmul
  6107     054A  0843               	movf	___flmul@temp+1,w
  6108     054B  00B3               	movwf	??___flmul+1
  6109     054C  01B4               	clrf	??___flmul+2
  6110     054D  01B5               	clrf	??___flmul+3
  6111     054E  0832               	movf	??___flmul,w
  6112     054F  07B9               	addwf	___flmul@grs,f
  6113     0550  0833               	movf	??___flmul+1,w
  6114     0551  1103               	clrz
  6115     0552  1803               	skipnc
  6116     0553  3E01               	addlw	1
  6117     0554  1903               	skipnz
  6118     0555  2D57               	goto	u4511
  6119     0556  07BA               	addwf	___flmul@grs+1,f
  6120     0557                     u4511:
  6121     0557  0834               	movf	??___flmul+2,w
  6122     0558  1103               	clrz
  6123     0559  1803               	skipnc
  6124     055A  3E01               	addlw	1
  6125     055B  1903               	skipnz
  6126     055C  2D5E               	goto	u4512
  6127     055D  07BB               	addwf	___flmul@grs+2,f
  6128     055E                     u4512:
  6129     055E  0835               	movf	??___flmul+3,w
  6130     055F  1103               	clrz
  6131     0560  1803               	skipnc
  6132     0561  3E01               	addlw	1
  6133     0562  1903               	skipnz
  6134     0563  2D65               	goto	u4513
  6135     0564  07BC               	addwf	___flmul@grs+3,f
  6136     0565                     u4513:
  6137     0565                     l3435:
  6138     0565  082A               	movf	___flmul@b,w
  6139     0566  00F2               	movwf	__Umul8_16@multiplicand
  6140     0567  082F               	movf	___flmul@a+1,w
  6141     0568  160A  118A  257D  120A  118A  	fcall	__Umul8_16
  6142     056D  0873               	movf	?__Umul8_16+1,w
  6143     056E  1283               	bcf	3,5	;RP0=0, select bank0
  6144     056F  1303               	bcf	3,6	;RP1=0, select bank0
  6145     0570  00C3               	movwf	___flmul@temp+1
  6146     0571  0872               	movf	?__Umul8_16,w
  6147     0572  00C2               	movwf	___flmul@temp
  6148     0573                     l3437:
  6149     0573  0842               	movf	___flmul@temp,w
  6150     0574  00B2               	movwf	??___flmul
  6151     0575  0843               	movf	___flmul@temp+1,w
  6152     0576  00B3               	movwf	??___flmul+1
  6153     0577  01B4               	clrf	??___flmul+2
  6154     0578  01B5               	clrf	??___flmul+3
  6155     0579  0832               	movf	??___flmul,w
  6156     057A  07B9               	addwf	___flmul@grs,f
  6157     057B  0833               	movf	??___flmul+1,w
  6158     057C  1103               	clrz
  6159     057D  1803               	skipnc
  6160     057E  3E01               	addlw	1
  6161     057F  1903               	skipnz
  6162     0580  2D82               	goto	u4521
  6163     0581  07BA               	addwf	___flmul@grs+1,f
  6164     0582                     u4521:
  6165     0582  0834               	movf	??___flmul+2,w
  6166     0583  1103               	clrz
  6167     0584  1803               	skipnc
  6168     0585  3E01               	addlw	1
  6169     0586  1903               	skipnz
  6170     0587  2D89               	goto	u4522
  6171     0588  07BB               	addwf	___flmul@grs+2,f
  6172     0589                     u4522:
  6173     0589  0835               	movf	??___flmul+3,w
  6174     058A  1103               	clrz
  6175     058B  1803               	skipnc
  6176     058C  3E01               	addlw	1
  6177     058D  1903               	skipnz
  6178     058E  2D90               	goto	u4523
  6179     058F  07BC               	addwf	___flmul@grs+3,f
  6180     0590                     u4523:
  6181     0590                     l3439:
  6182     0590  3008               	movlw	8
  6183     0591  00B2               	movwf	??___flmul
  6184     0592                     u4535:
  6185     0592  1003               	clrc
  6186     0593  0DB9               	rlf	___flmul@grs,f
  6187     0594  0DBA               	rlf	___flmul@grs+1,f
  6188     0595  0DBB               	rlf	___flmul@grs+2,f
  6189     0596  0DBC               	rlf	___flmul@grs+3,f
  6190     0597  0BB2               	decfsz	??___flmul,f
  6191     0598  2D92               	goto	u4535
  6192     0599  082A               	movf	___flmul@b,w
  6193     059A  00F2               	movwf	__Umul8_16@multiplicand
  6194     059B  082E               	movf	___flmul@a,w
  6195     059C  160A  118A  257D  120A  118A  	fcall	__Umul8_16
  6196     05A1  0873               	movf	?__Umul8_16+1,w
  6197     05A2  1283               	bcf	3,5	;RP0=0, select bank0
  6198     05A3  1303               	bcf	3,6	;RP1=0, select bank0
  6199     05A4  00C3               	movwf	___flmul@temp+1
  6200     05A5  0872               	movf	?__Umul8_16,w
  6201     05A6  00C2               	movwf	___flmul@temp
  6202     05A7                     l3441:
  6203     05A7  0842               	movf	___flmul@temp,w
  6204     05A8  00B2               	movwf	??___flmul
  6205     05A9  0843               	movf	___flmul@temp+1,w
  6206     05AA  00B3               	movwf	??___flmul+1
  6207     05AB  01B4               	clrf	??___flmul+2
  6208     05AC  01B5               	clrf	??___flmul+3
  6209     05AD  0832               	movf	??___flmul,w
  6210     05AE  07B9               	addwf	___flmul@grs,f
  6211     05AF  0833               	movf	??___flmul+1,w
  6212     05B0  1103               	clrz
  6213     05B1  1803               	skipnc
  6214     05B2  3E01               	addlw	1
  6215     05B3  1903               	skipnz
  6216     05B4  2DB6               	goto	u4541
  6217     05B5  07BA               	addwf	___flmul@grs+1,f
  6218     05B6                     u4541:
  6219     05B6  0834               	movf	??___flmul+2,w
  6220     05B7  1103               	clrz
  6221     05B8  1803               	skipnc
  6222     05B9  3E01               	addlw	1
  6223     05BA  1903               	skipnz
  6224     05BB  2DBD               	goto	u4542
  6225     05BC  07BB               	addwf	___flmul@grs+2,f
  6226     05BD                     u4542:
  6227     05BD  0835               	movf	??___flmul+3,w
  6228     05BE  1103               	clrz
  6229     05BF  1803               	skipnc
  6230     05C0  3E01               	addlw	1
  6231     05C1  1903               	skipnz
  6232     05C2  2DC4               	goto	u4543
  6233     05C3  07BC               	addwf	___flmul@grs+3,f
  6234     05C4                     u4543:
  6235     05C4                     l3443:
  6236     05C4  082B               	movf	___flmul@b+1,w
  6237     05C5  00F2               	movwf	__Umul8_16@multiplicand
  6238     05C6  0830               	movf	___flmul@a+2,w
  6239     05C7  160A  118A  257D  120A  118A  	fcall	__Umul8_16
  6240     05CC  0873               	movf	?__Umul8_16+1,w
  6241     05CD  1283               	bcf	3,5	;RP0=0, select bank0
  6242     05CE  1303               	bcf	3,6	;RP1=0, select bank0
  6243     05CF  00C3               	movwf	___flmul@temp+1
  6244     05D0  0872               	movf	?__Umul8_16,w
  6245     05D1  00C2               	movwf	___flmul@temp
  6246     05D2  0842               	movf	___flmul@temp,w
  6247     05D3  00B2               	movwf	??___flmul
  6248     05D4  0843               	movf	___flmul@temp+1,w
  6249     05D5  00B3               	movwf	??___flmul+1
  6250     05D6  01B4               	clrf	??___flmul+2
  6251     05D7  01B5               	clrf	??___flmul+3
  6252     05D8  0832               	movf	??___flmul,w
  6253     05D9  07BE               	addwf	___flmul@prod,f
  6254     05DA  0833               	movf	??___flmul+1,w
  6255     05DB  1103               	clrz
  6256     05DC  1803               	skipnc
  6257     05DD  3E01               	addlw	1
  6258     05DE  1903               	skipnz
  6259     05DF  2DE1               	goto	u4551
  6260     05E0  07BF               	addwf	___flmul@prod+1,f
  6261     05E1                     u4551:
  6262     05E1  0834               	movf	??___flmul+2,w
  6263     05E2  1103               	clrz
  6264     05E3  1803               	skipnc
  6265     05E4  3E01               	addlw	1
  6266     05E5  1903               	skipnz
  6267     05E6  2DE8               	goto	u4552
  6268     05E7  07C0               	addwf	___flmul@prod+2,f
  6269     05E8                     u4552:
  6270     05E8  0835               	movf	??___flmul+3,w
  6271     05E9  1103               	clrz
  6272     05EA  1803               	skipnc
  6273     05EB  3E01               	addlw	1
  6274     05EC  1903               	skipnz
  6275     05ED  2DEF               	goto	u4553
  6276     05EE  07C1               	addwf	___flmul@prod+3,f
  6277     05EF                     u4553:
  6278     05EF                     l3445:
  6279     05EF  082C               	movf	___flmul@b+2,w
  6280     05F0  00F2               	movwf	__Umul8_16@multiplicand
  6281     05F1  082F               	movf	___flmul@a+1,w
  6282     05F2  160A  118A  257D  120A  118A  	fcall	__Umul8_16
  6283     05F7  0873               	movf	?__Umul8_16+1,w
  6284     05F8  1283               	bcf	3,5	;RP0=0, select bank0
  6285     05F9  1303               	bcf	3,6	;RP1=0, select bank0
  6286     05FA  00C3               	movwf	___flmul@temp+1
  6287     05FB  0872               	movf	?__Umul8_16,w
  6288     05FC  00C2               	movwf	___flmul@temp
  6289     05FD                     l3447:
  6290     05FD  0842               	movf	___flmul@temp,w
  6291     05FE  00B2               	movwf	??___flmul
  6292     05FF  0843               	movf	___flmul@temp+1,w
  6293     0600  00B3               	movwf	??___flmul+1
  6294     0601  01B4               	clrf	??___flmul+2
  6295     0602  01B5               	clrf	??___flmul+3
  6296     0603  0832               	movf	??___flmul,w
  6297     0604  07BE               	addwf	___flmul@prod,f
  6298     0605  0833               	movf	??___flmul+1,w
  6299     0606  1103               	clrz
  6300     0607  1803               	skipnc
  6301     0608  3E01               	addlw	1
  6302     0609  1903               	skipnz
  6303     060A  2E0C               	goto	u4561
  6304     060B  07BF               	addwf	___flmul@prod+1,f
  6305     060C                     u4561:
  6306     060C  0834               	movf	??___flmul+2,w
  6307     060D  1103               	clrz
  6308     060E  1803               	skipnc
  6309     060F  3E01               	addlw	1
  6310     0610  1903               	skipnz
  6311     0611  2E13               	goto	u4562
  6312     0612  07C0               	addwf	___flmul@prod+2,f
  6313     0613                     u4562:
  6314     0613  0835               	movf	??___flmul+3,w
  6315     0614  1103               	clrz
  6316     0615  1803               	skipnc
  6317     0616  3E01               	addlw	1
  6318     0617  1903               	skipnz
  6319     0618  2E1A               	goto	u4563
  6320     0619  07C1               	addwf	___flmul@prod+3,f
  6321     061A                     u4563:
  6322     061A  082C               	movf	___flmul@b+2,w
  6323     061B  00F2               	movwf	__Umul8_16@multiplicand
  6324     061C  0830               	movf	___flmul@a+2,w
  6325     061D  160A  118A  257D  120A  118A  	fcall	__Umul8_16
  6326     0622  0873               	movf	?__Umul8_16+1,w
  6327     0623  1283               	bcf	3,5	;RP0=0, select bank0
  6328     0624  1303               	bcf	3,6	;RP1=0, select bank0
  6329     0625  00C3               	movwf	___flmul@temp+1
  6330     0626  0872               	movf	?__Umul8_16,w
  6331     0627  00C2               	movwf	___flmul@temp
  6332     0628                     l3449:
  6333     0628  0842               	movf	___flmul@temp,w
  6334     0629  00B2               	movwf	??___flmul
  6335     062A  0843               	movf	___flmul@temp+1,w
  6336     062B  00B3               	movwf	??___flmul+1
  6337     062C  01B4               	clrf	??___flmul+2
  6338     062D  01B5               	clrf	??___flmul+3
  6339     062E  3008               	movlw	8
  6340     062F                     u4575:
  6341     062F  1003               	clrc
  6342     0630  0DB2               	rlf	??___flmul,f
  6343     0631  0DB3               	rlf	??___flmul+1,f
  6344     0632  0DB4               	rlf	??___flmul+2,f
  6345     0633  0DB5               	rlf	??___flmul+3,f
  6346     0634                     u4570:
  6347     0634  3EFF               	addlw	-1
  6348     0635  1D03               	skipz
  6349     0636  2E2F               	goto	u4575
  6350     0637  0832               	movf	??___flmul,w
  6351     0638  07BE               	addwf	___flmul@prod,f
  6352     0639  0833               	movf	??___flmul+1,w
  6353     063A  1103               	clrz
  6354     063B  1803               	skipnc
  6355     063C  3E01               	addlw	1
  6356     063D  1903               	skipnz
  6357     063E  2E40               	goto	u4581
  6358     063F  07BF               	addwf	___flmul@prod+1,f
  6359     0640                     u4581:
  6360     0640  0834               	movf	??___flmul+2,w
  6361     0641  1103               	clrz
  6362     0642  1803               	skipnc
  6363     0643  3E01               	addlw	1
  6364     0644  1903               	skipnz
  6365     0645  2E47               	goto	u4582
  6366     0646  07C0               	addwf	___flmul@prod+2,f
  6367     0647                     u4582:
  6368     0647  0835               	movf	??___flmul+3,w
  6369     0648  1103               	clrz
  6370     0649  1803               	skipnc
  6371     064A  3E01               	addlw	1
  6372     064B  1903               	skipnz
  6373     064C  2E4E               	goto	u4583
  6374     064D  07C1               	addwf	___flmul@prod+3,f
  6375     064E                     u4583:
  6376     064E                     l3451:
  6377     064E  0839               	movf	___flmul@grs,w
  6378     064F  00B2               	movwf	??___flmul
  6379     0650  083A               	movf	___flmul@grs+1,w
  6380     0651  00B3               	movwf	??___flmul+1
  6381     0652  083B               	movf	___flmul@grs+2,w
  6382     0653  00B4               	movwf	??___flmul+2
  6383     0654  083C               	movf	___flmul@grs+3,w
  6384     0655  00B5               	movwf	??___flmul+3
  6385     0656  3018               	movlw	24
  6386     0657                     u4595:
  6387     0657  1003               	clrc
  6388     0658  0CB5               	rrf	??___flmul+3,f
  6389     0659  0CB4               	rrf	??___flmul+2,f
  6390     065A  0CB3               	rrf	??___flmul+1,f
  6391     065B  0CB2               	rrf	??___flmul,f
  6392     065C                     u4590:
  6393     065C  3EFF               	addlw	-1
  6394     065D  1D03               	skipz
  6395     065E  2E57               	goto	u4595
  6396     065F  0832               	movf	??___flmul,w
  6397     0660  07BE               	addwf	___flmul@prod,f
  6398     0661  0833               	movf	??___flmul+1,w
  6399     0662  1103               	clrz
  6400     0663  1803               	skipnc
  6401     0664  3E01               	addlw	1
  6402     0665  1903               	skipnz
  6403     0666  2E68               	goto	u4601
  6404     0667  07BF               	addwf	___flmul@prod+1,f
  6405     0668                     u4601:
  6406     0668  0834               	movf	??___flmul+2,w
  6407     0669  1103               	clrz
  6408     066A  1803               	skipnc
  6409     066B  3E01               	addlw	1
  6410     066C  1903               	skipnz
  6411     066D  2E6F               	goto	u4602
  6412     066E  07C0               	addwf	___flmul@prod+2,f
  6413     066F                     u4602:
  6414     066F  0835               	movf	??___flmul+3,w
  6415     0670  1103               	clrz
  6416     0671  1803               	skipnc
  6417     0672  3E01               	addlw	1
  6418     0673  1903               	skipnz
  6419     0674  2E76               	goto	u4603
  6420     0675  07C1               	addwf	___flmul@prod+3,f
  6421     0676                     u4603:
  6422     0676                     l3453:
  6423     0676  3008               	movlw	8
  6424     0677  00B2               	movwf	??___flmul
  6425     0678                     u4615:
  6426     0678  1003               	clrc
  6427     0679  0DB9               	rlf	___flmul@grs,f
  6428     067A  0DBA               	rlf	___flmul@grs+1,f
  6429     067B  0DBB               	rlf	___flmul@grs+2,f
  6430     067C  0DBC               	rlf	___flmul@grs+3,f
  6431     067D  0BB2               	decfsz	??___flmul,f
  6432     067E  2E78               	goto	u4615
  6433     067F                     l3455:
  6434     067F  083D               	movf	___flmul@bexp,w
  6435     0680  0738               	addwf	___flmul@aexp,w
  6436     0681  00B2               	movwf	??___flmul
  6437     0682  01B3               	clrf	??___flmul+1
  6438     0683  0DB3               	rlf	??___flmul+1,f
  6439     0684  0832               	movf	??___flmul,w
  6440     0685  3E82               	addlw	130
  6441     0686  00C2               	movwf	___flmul@temp
  6442     0687  0833               	movf	??___flmul+1,w
  6443     0688  1803               	skipnc
  6444     0689  3E01               	addlw	1
  6445     068A  3EFF               	addlw	255
  6446     068B  00C3               	movwf	___flmul@temp+1
  6447     068C  2EAA               	goto	l3467
  6448     068D                     l3457:
  6449     068D  3001               	movlw	1
  6450     068E  00B2               	movwf	??___flmul
  6451     068F                     u4625:
  6452     068F  1003               	clrc
  6453     0690  0DBE               	rlf	___flmul@prod,f
  6454     0691  0DBF               	rlf	___flmul@prod+1,f
  6455     0692  0DC0               	rlf	___flmul@prod+2,f
  6456     0693  0DC1               	rlf	___flmul@prod+3,f
  6457     0694  0BB2               	decfsz	??___flmul,f
  6458     0695  2E8F               	goto	u4625
  6459     0696                     l3459:
  6460     0696  1FBC               	btfss	___flmul@grs+3,7
  6461     0697  2E99               	goto	u4631
  6462     0698  2E9A               	goto	u4630
  6463     0699                     u4631:
  6464     0699  2E9B               	goto	l3463
  6465     069A                     u4630:
  6466     069A                     l3461:
  6467     069A  143E               	bsf	___flmul@prod,0
  6468     069B                     l3463:
  6469     069B  3001               	movlw	1
  6470     069C  00B2               	movwf	??___flmul
  6471     069D                     u4645:
  6472     069D  1003               	clrc
  6473     069E  0DB9               	rlf	___flmul@grs,f
  6474     069F  0DBA               	rlf	___flmul@grs+1,f
  6475     06A0  0DBB               	rlf	___flmul@grs+2,f
  6476     06A1  0DBC               	rlf	___flmul@grs+3,f
  6477     06A2  0BB2               	decfsz	??___flmul,f
  6478     06A3  2E9D               	goto	u4645
  6479     06A4                     l3465:
  6480     06A4  30FF               	movlw	255
  6481     06A5  07C2               	addwf	___flmul@temp,f
  6482     06A6  1803               	skipnc
  6483     06A7  0AC3               	incf	___flmul@temp+1,f
  6484     06A8  30FF               	movlw	255
  6485     06A9  07C3               	addwf	___flmul@temp+1,f
  6486     06AA                     l3467:
  6487     06AA  1FC0               	btfss	___flmul@prod+2,7
  6488     06AB  2EAD               	goto	u4651
  6489     06AC  2EAE               	goto	u4650
  6490     06AD                     u4651:
  6491     06AD  2E8D               	goto	l3457
  6492     06AE                     u4650:
  6493     06AE                     l3469:
  6494     06AE  01B8               	clrf	___flmul@aexp
  6495     06AF                     l3471:
  6496     06AF  1FBC               	btfss	___flmul@grs+3,7
  6497     06B0  2EB2               	goto	u4661
  6498     06B1  2EB3               	goto	u4660
  6499     06B2                     u4661:
  6500     06B2  2ECF               	goto	l3479
  6501     06B3                     u4660:
  6502     06B3                     l3473:
  6503     06B3  30FF               	movlw	255
  6504     06B4  0539               	andwf	___flmul@grs,w
  6505     06B5  00B2               	movwf	??___flmul
  6506     06B6  30FF               	movlw	255
  6507     06B7  053A               	andwf	___flmul@grs+1,w
  6508     06B8  00B3               	movwf	??___flmul+1
  6509     06B9  30FF               	movlw	255
  6510     06BA  053B               	andwf	___flmul@grs+2,w
  6511     06BB  00B4               	movwf	??___flmul+2
  6512     06BC  307F               	movlw	127
  6513     06BD  053C               	andwf	___flmul@grs+3,w
  6514     06BE  00B5               	movwf	??___flmul+3
  6515     06BF  0835               	movf	??___flmul+3,w
  6516     06C0  0434               	iorwf	??___flmul+2,w
  6517     06C1  0433               	iorwf	??___flmul+1,w
  6518     06C2  0432               	iorwf	??___flmul,w
  6519     06C3  1903               	skipnz
  6520     06C4  2EC6               	goto	u4671
  6521     06C5  2EC7               	goto	u4670
  6522     06C6                     u4671:
  6523     06C6  2ECA               	goto	l846
  6524     06C7                     u4670:
  6525     06C7                     l3475:
  6526     06C7  3001               	movlw	1
  6527     06C8  00B8               	movwf	___flmul@aexp
  6528     06C9  2ECF               	goto	l3479
  6529     06CA                     l846:
  6530     06CA  1C3E               	btfss	___flmul@prod,0
  6531     06CB  2ECD               	goto	u4681
  6532     06CC  2ECE               	goto	u4680
  6533     06CD                     u4681:
  6534     06CD  2ECF               	goto	l3479
  6535     06CE                     u4680:
  6536     06CE  2EC7               	goto	l3475
  6537     06CF                     l3479:
  6538     06CF  0838               	movf	___flmul@aexp,w
  6539     06D0  1903               	btfsc	3,2
  6540     06D1  2ED3               	goto	u4691
  6541     06D2  2ED4               	goto	u4690
  6542     06D3                     u4691:
  6543     06D3  2F05               	goto	l3489
  6544     06D4                     u4690:
  6545     06D4                     l3481:
  6546     06D4  3001               	movlw	1
  6547     06D5  07BE               	addwf	___flmul@prod,f
  6548     06D6  3000               	movlw	0
  6549     06D7  1803               	skipnc
  6550     06D8  3001               	movlw	1
  6551     06D9  07BF               	addwf	___flmul@prod+1,f
  6552     06DA  3000               	movlw	0
  6553     06DB  1803               	skipnc
  6554     06DC  3001               	movlw	1
  6555     06DD  07C0               	addwf	___flmul@prod+2,f
  6556     06DE  3000               	movlw	0
  6557     06DF  1803               	skipnc
  6558     06E0  3001               	movlw	1
  6559     06E1  07C1               	addwf	___flmul@prod+3,f
  6560     06E2                     l3483:
  6561     06E2  1C41               	btfss	___flmul@prod+3,0
  6562     06E3  2EE5               	goto	u4701
  6563     06E4  2EE6               	goto	u4700
  6564     06E5                     u4701:
  6565     06E5  2F05               	goto	l3489
  6566     06E6                     u4700:
  6567     06E6                     l3485:
  6568     06E6  083E               	movf	___flmul@prod,w
  6569     06E7  00B2               	movwf	??___flmul
  6570     06E8  083F               	movf	___flmul@prod+1,w
  6571     06E9  00B3               	movwf	??___flmul+1
  6572     06EA  0840               	movf	___flmul@prod+2,w
  6573     06EB  00B4               	movwf	??___flmul+2
  6574     06EC  0841               	movf	___flmul@prod+3,w
  6575     06ED  00B5               	movwf	??___flmul+3
  6576     06EE  3001               	movlw	1
  6577     06EF  00B6               	movwf	??___flmul+4
  6578     06F0                     u4715:
  6579     06F0  0D35               	rlf	??___flmul+3,w
  6580     06F1  0CB5               	rrf	??___flmul+3,f
  6581     06F2  0CB4               	rrf	??___flmul+2,f
  6582     06F3  0CB3               	rrf	??___flmul+1,f
  6583     06F4  0CB2               	rrf	??___flmul,f
  6584     06F5                     u4710:
  6585     06F5  0BB6               	decfsz	??___flmul+4,f
  6586     06F6  2EF0               	goto	u4715
  6587     06F7  0835               	movf	??___flmul+3,w
  6588     06F8  00C1               	movwf	___flmul@prod+3
  6589     06F9  0834               	movf	??___flmul+2,w
  6590     06FA  00C0               	movwf	___flmul@prod+2
  6591     06FB  0833               	movf	??___flmul+1,w
  6592     06FC  00BF               	movwf	___flmul@prod+1
  6593     06FD  0832               	movf	??___flmul,w
  6594     06FE  00BE               	movwf	___flmul@prod
  6595     06FF                     l3487:
  6596     06FF  3001               	movlw	1
  6597     0700  07C2               	addwf	___flmul@temp,f
  6598     0701  1803               	skipnc
  6599     0702  0AC3               	incf	___flmul@temp+1,f
  6600     0703  3000               	movlw	0
  6601     0704  07C3               	addwf	___flmul@temp+1,f
  6602     0705                     l3489:
  6603     0705  0843               	movf	___flmul@temp+1,w
  6604     0706  3A80               	xorlw	128
  6605     0707  00FF               	movwf	btemp+1
  6606     0708  3080               	movlw	128
  6607     0709  027F               	subwf	btemp+1,w
  6608     070A  1D03               	skipz
  6609     070B  2F0E               	goto	u4725
  6610     070C  30FF               	movlw	255
  6611     070D  0242               	subwf	___flmul@temp,w
  6612     070E                     u4725:
  6613     070E  1C03               	skipc
  6614     070F  2F11               	goto	u4721
  6615     0710  2F12               	goto	u4720
  6616     0711                     u4721:
  6617     0711  2F1D               	goto	l3493
  6618     0712                     u4720:
  6619     0712                     l3491:
  6620     0712  307F               	movlw	127
  6621     0713  1283               	bcf	3,5	;RP0=0, select bank0
  6622     0714  1303               	bcf	3,6	;RP1=0, select bank0
  6623     0715  00C1               	movwf	___flmul@prod+3
  6624     0716  3080               	movlw	128
  6625     0717  00C0               	movwf	___flmul@prod+2
  6626     0718  3000               	movlw	0
  6627     0719  00BF               	movwf	___flmul@prod+1
  6628     071A  3000               	movlw	0
  6629     071B  00BE               	movwf	___flmul@prod
  6630     071C  2F4E               	goto	l852
  6631     071D                     l3493:
  6632     071D  1283               	bcf	3,5	;RP0=0, select bank0
  6633     071E  1303               	bcf	3,6	;RP1=0, select bank0
  6634     071F  0843               	movf	___flmul@temp+1,w
  6635     0720  3A80               	xorlw	128
  6636     0721  00FF               	movwf	btemp+1
  6637     0722  3080               	movlw	128
  6638     0723  027F               	subwf	btemp+1,w
  6639     0724  1D03               	skipz
  6640     0725  2F28               	goto	u4735
  6641     0726  3001               	movlw	1
  6642     0727  0242               	subwf	___flmul@temp,w
  6643     0728                     u4735:
  6644     0728  1803               	skipnc
  6645     0729  2F2B               	goto	u4731
  6646     072A  2F2C               	goto	u4730
  6647     072B                     u4731:
  6648     072B  2F38               	goto	l3499
  6649     072C                     u4730:
  6650     072C                     l3495:
  6651     072C  3000               	movlw	0
  6652     072D  1283               	bcf	3,5	;RP0=0, select bank0
  6653     072E  1303               	bcf	3,6	;RP1=0, select bank0
  6654     072F  00C1               	movwf	___flmul@prod+3
  6655     0730  3000               	movlw	0
  6656     0731  00C0               	movwf	___flmul@prod+2
  6657     0732  3000               	movlw	0
  6658     0733  00BF               	movwf	___flmul@prod+1
  6659     0734  3000               	movlw	0
  6660     0735  00BE               	movwf	___flmul@prod
  6661     0736                     l3497:
  6662     0736  01B7               	clrf	___flmul@sign
  6663     0737  2F4E               	goto	l852
  6664     0738                     l3499:
  6665     0738  1283               	bcf	3,5	;RP0=0, select bank0
  6666     0739  1303               	bcf	3,6	;RP1=0, select bank0
  6667     073A  0842               	movf	___flmul@temp,w
  6668     073B  00BD               	movwf	___flmul@bexp
  6669     073C  30FF               	movlw	255
  6670     073D  05BE               	andwf	___flmul@prod,f
  6671     073E  30FF               	movlw	255
  6672     073F  05BF               	andwf	___flmul@prod+1,f
  6673     0740  307F               	movlw	127
  6674     0741  05C0               	andwf	___flmul@prod+2,f
  6675     0742  3000               	movlw	0
  6676     0743  05C1               	andwf	___flmul@prod+3,f
  6677     0744                     l3501:
  6678     0744  1C3D               	btfss	___flmul@bexp,0
  6679     0745  2F47               	goto	u4741
  6680     0746  2F48               	goto	u4740
  6681     0747                     u4741:
  6682     0747  2F49               	goto	l3505
  6683     0748                     u4740:
  6684     0748                     l3503:
  6685     0748  17C0               	bsf	___flmul@prod+2,7
  6686     0749                     l3505:
  6687     0749  083D               	movf	___flmul@bexp,w
  6688     074A  00B2               	movwf	??___flmul
  6689     074B  1003               	clrc
  6690     074C  0C32               	rrf	??___flmul,w
  6691     074D  00C1               	movwf	___flmul@prod+3
  6692     074E                     l852:
  6693     074E  0837               	movf	___flmul@sign,w
  6694     074F  04C1               	iorwf	___flmul@prod+3,f
  6695     0750                     l3507:
  6696     0750  0841               	movf	___flmul@prod+3,w
  6697     0751  00AD               	movwf	?___flmul+3
  6698     0752  0840               	movf	___flmul@prod+2,w
  6699     0753  00AC               	movwf	?___flmul+2
  6700     0754  083F               	movf	___flmul@prod+1,w
  6701     0755  00AB               	movwf	?___flmul+1
  6702     0756  083E               	movf	___flmul@prod,w
  6703     0757  00AA               	movwf	?___flmul
  6704     0758                     l840:
  6705     0758  0008               	return
  6706     0759                     __end_of___flmul:
  6707                           
  6708                           	psect	text12
  6709     157D                     __ptext12:	
  6710 ;; *************** function __Umul8_16 *****************
  6711 ;; Defined at:
  6712 ;;		line 4 in file "C:\Program Files\Microchip\xc8\v3.00\pic\sources\c99\common\Umul8_16.c"
  6713 ;; Parameters:    Size  Location     Type
  6714 ;;  multiplier      1    wreg     unsigned char 
  6715 ;;  multiplicand    1    2[COMMON] unsigned char 
  6716 ;; Auto vars:     Size  Location     Type
  6717 ;;  multiplier      1    4[BANK0 ] unsigned char 
  6718 ;;  word_mpld       2    2[BANK0 ] unsigned short 
  6719 ;;  product         2    0[BANK0 ] unsigned short 
  6720 ;; Return value:  Size  Location     Type
  6721 ;;                  2    2[COMMON] unsigned int 
  6722 ;; Registers used:
  6723 ;;		wreg, status,2, status,0
  6724 ;; Tracked objects:
  6725 ;;		On entry : 0/0
  6726 ;;		On exit  : 0/0
  6727 ;;		Unchanged: 0/0
  6728 ;; Data sizes:     COMMON   BANK0   BANK1   BANK3   BANK2
  6729 ;;      Params:         2       0       0       0       0
  6730 ;;      Locals:         0       5       0       0       0
  6731 ;;      Temps:          2       0       0       0       0
  6732 ;;      Totals:         4       5       0       0       0
  6733 ;;Total ram usage:        9 bytes
  6734 ;; Hardware stack levels used: 1
  6735 ;; Hardware stack levels required when called: 1
  6736 ;; This function calls:
  6737 ;;		Nothing
  6738 ;; This function is called by:
  6739 ;;		___flmul
  6740 ;; This function uses a non-reentrant model
  6741 ;;
  6742                           
  6743     157D                     __Umul8_16:	
  6744                           ;psect for function __Umul8_16
  6745                           
  6746                           
  6747                           ;incstack = 0
  6748                           ; Regs used in __Umul8_16: [wreg+status,2+status,0]
  6749                           ;__Umul8_16@multiplier stored from wreg
  6750     157D  1283               	bcf	3,5	;RP0=0, select bank0
  6751     157E  1303               	bcf	3,6	;RP1=0, select bank0
  6752     157F  00A4               	movwf	__Umul8_16@multiplier
  6753     1580                     l3161:
  6754     1580  01A0               	clrf	__Umul8_16@product
  6755     1581  01A1               	clrf	__Umul8_16@product+1
  6756     1582                     l3163:
  6757     1582  0872               	movf	__Umul8_16@multiplicand,w
  6758     1583  00F4               	movwf	??__Umul8_16
  6759     1584  01F5               	clrf	??__Umul8_16+1
  6760     1585  0874               	movf	??__Umul8_16,w
  6761     1586  00A2               	movwf	__Umul8_16@word_mpld
  6762     1587  0875               	movf	??__Umul8_16+1,w
  6763     1588  00A3               	movwf	__Umul8_16@word_mpld+1
  6764     1589                     l3165:
  6765     1589  1C24               	btfss	__Umul8_16@multiplier,0
  6766     158A  2D8C               	goto	u3951
  6767     158B  2D8D               	goto	u3950
  6768     158C                     u3951:
  6769     158C  2D93               	goto	l859
  6770     158D                     u3950:
  6771     158D                     l3167:
  6772     158D  0822               	movf	__Umul8_16@word_mpld,w
  6773     158E  07A0               	addwf	__Umul8_16@product,f
  6774     158F  1803               	skipnc
  6775     1590  0AA1               	incf	__Umul8_16@product+1,f
  6776     1591  0823               	movf	__Umul8_16@word_mpld+1,w
  6777     1592  07A1               	addwf	__Umul8_16@product+1,f
  6778     1593                     l859:
  6779     1593  3001               	movlw	1
  6780     1594                     u3965:
  6781     1594  1003               	clrc
  6782     1595  0DA2               	rlf	__Umul8_16@word_mpld,f
  6783     1596  0DA3               	rlf	__Umul8_16@word_mpld+1,f
  6784     1597  3EFF               	addlw	-1
  6785     1598  1D03               	skipz
  6786     1599  2D94               	goto	u3965
  6787     159A  1003               	clrc
  6788     159B  0CA4               	rrf	__Umul8_16@multiplier,f
  6789     159C                     l3169:
  6790     159C  0824               	movf	__Umul8_16@multiplier,w
  6791     159D  1D03               	btfss	3,2
  6792     159E  2DA0               	goto	u3971
  6793     159F  2DA1               	goto	u3970
  6794     15A0                     u3971:
  6795     15A0  2D89               	goto	l3165
  6796     15A1                     u3970:
  6797     15A1                     l3171:
  6798     15A1  0821               	movf	__Umul8_16@product+1,w
  6799     15A2  00F3               	movwf	?__Umul8_16+1
  6800     15A3  0820               	movf	__Umul8_16@product,w
  6801     15A4  00F2               	movwf	?__Umul8_16
  6802     15A5                     l861:
  6803     15A5  0008               	return
  6804     15A6                     __end_of__Umul8_16:
  6805                           
  6806                           	psect	text13
  6807     0759                     __ptext13:	
  6808 ;; *************** function ___flge *****************
  6809 ;; Defined at:
  6810 ;;		line 4 in file "C:\Program Files\Microchip\xc8\v3.00\pic\sources\c99\common\flge.c"
  6811 ;; Parameters:    Size  Location     Type
  6812 ;;  ff1             4   44[BANK0 ] unsigned int 
  6813 ;;  ff2             4   48[BANK0 ] unsigned int 
  6814 ;; Auto vars:     Size  Location     Type
  6815 ;;		None
  6816 ;; Return value:  Size  Location     Type
  6817 ;;		None               void
  6818 ;; Registers used:
  6819 ;;		wreg, status,2, status,0
  6820 ;; Tracked objects:
  6821 ;;		On entry : 0/0
  6822 ;;		On exit  : 0/0
  6823 ;;		Unchanged: 0/0
  6824 ;; Data sizes:     COMMON   BANK0   BANK1   BANK3   BANK2
  6825 ;;      Params:         0       8       0       0       0
  6826 ;;      Locals:         0       0       0       0       0
  6827 ;;      Temps:          0       4       0       0       0
  6828 ;;      Totals:         0      12       0       0       0
  6829 ;;Total ram usage:       12 bytes
  6830 ;; Hardware stack levels used: 1
  6831 ;; Hardware stack levels required when called: 1
  6832 ;; This function calls:
  6833 ;;		Nothing
  6834 ;; This function is called by:
  6835 ;;		_run_program
  6836 ;; This function uses a non-reentrant model
  6837 ;;
  6838                           
  6839     0759                     ___flge:	
  6840                           ;psect for function ___flge
  6841                           
  6842     0759                     l3307:	
  6843                           ;incstack = 0
  6844                           ; Regs used in ___flge: [wreg+status,2+status,0]
  6845                           
  6846     0759  3000               	movlw	0
  6847     075A  1283               	bcf	3,5	;RP0=0, select bank0
  6848     075B  1303               	bcf	3,6	;RP1=0, select bank0
  6849     075C  054C               	andwf	___flge@ff1,w
  6850     075D  00D4               	movwf	??___flge
  6851     075E  3000               	movlw	0
  6852     075F  054D               	andwf	___flge@ff1+1,w
  6853     0760  00D5               	movwf	??___flge+1
  6854     0761  3080               	movlw	128
  6855     0762  054E               	andwf	___flge@ff1+2,w
  6856     0763  00D6               	movwf	??___flge+2
  6857     0764  307F               	movlw	127
  6858     0765  054F               	andwf	___flge@ff1+3,w
  6859     0766  00D7               	movwf	??___flge+3
  6860     0767  0857               	movf	??___flge+3,w
  6861     0768  0456               	iorwf	??___flge+2,w
  6862     0769  0455               	iorwf	??___flge+1,w
  6863     076A  0454               	iorwf	??___flge,w
  6864     076B  1D03               	skipz
  6865     076C  2F6E               	goto	u4211
  6866     076D  2F6F               	goto	u4210
  6867     076E                     u4211:
  6868     076E  2F77               	goto	l621
  6869     076F                     u4210:
  6870     076F                     l3309:
  6871     076F  3000               	movlw	0
  6872     0770  00CF               	movwf	___flge@ff1+3
  6873     0771  3000               	movlw	0
  6874     0772  00CE               	movwf	___flge@ff1+2
  6875     0773  3000               	movlw	0
  6876     0774  00CD               	movwf	___flge@ff1+1
  6877     0775  3000               	movlw	0
  6878     0776  00CC               	movwf	___flge@ff1
  6879     0777                     l621:
  6880     0777  3000               	movlw	0
  6881     0778  0550               	andwf	___flge@ff2,w
  6882     0779  00D4               	movwf	??___flge
  6883     077A  3000               	movlw	0
  6884     077B  0551               	andwf	___flge@ff2+1,w
  6885     077C  00D5               	movwf	??___flge+1
  6886     077D  3080               	movlw	128
  6887     077E  0552               	andwf	___flge@ff2+2,w
  6888     077F  00D6               	movwf	??___flge+2
  6889     0780  307F               	movlw	127
  6890     0781  0553               	andwf	___flge@ff2+3,w
  6891     0782  00D7               	movwf	??___flge+3
  6892     0783  0857               	movf	??___flge+3,w
  6893     0784  0456               	iorwf	??___flge+2,w
  6894     0785  0455               	iorwf	??___flge+1,w
  6895     0786  0454               	iorwf	??___flge,w
  6896     0787  1D03               	skipz
  6897     0788  2F8A               	goto	u4221
  6898     0789  2F8B               	goto	u4220
  6899     078A                     u4221:
  6900     078A  2F93               	goto	l3313
  6901     078B                     u4220:
  6902     078B                     l3311:
  6903     078B  3000               	movlw	0
  6904     078C  00D3               	movwf	___flge@ff2+3
  6905     078D  3000               	movlw	0
  6906     078E  00D2               	movwf	___flge@ff2+2
  6907     078F  3000               	movlw	0
  6908     0790  00D1               	movwf	___flge@ff2+1
  6909     0791  3000               	movlw	0
  6910     0792  00D0               	movwf	___flge@ff2
  6911     0793                     l3313:
  6912     0793  1FCF               	btfss	___flge@ff1+3,7
  6913     0794  2F96               	goto	u4231
  6914     0795  2F97               	goto	u4230
  6915     0796                     u4231:
  6916     0796  2FBB               	goto	l3317
  6917     0797                     u4230:
  6918     0797                     l3315:
  6919     0797  3000               	movlw	0
  6920     0798  00D4               	movwf	??___flge
  6921     0799  3000               	movlw	0
  6922     079A  00D5               	movwf	??___flge+1
  6923     079B  3000               	movlw	0
  6924     079C  00D6               	movwf	??___flge+2
  6925     079D  3080               	movlw	128
  6926     079E  00D7               	movwf	??___flge+3
  6927     079F  084C               	movf	___flge@ff1,w
  6928     07A0  02D4               	subwf	??___flge,f
  6929     07A1  084D               	movf	___flge@ff1+1,w
  6930     07A2  1C03               	skipc
  6931     07A3  0F4D               	incfsz	___flge@ff1+1,w
  6932     07A4  2FA6               	goto	u4241
  6933     07A5  2FA7               	goto	u4242
  6934     07A6                     u4241:
  6935     07A6  02D5               	subwf	??___flge+1,f
  6936     07A7                     u4242:
  6937     07A7  084E               	movf	___flge@ff1+2,w
  6938     07A8  1C03               	skipc
  6939     07A9  0F4E               	incfsz	___flge@ff1+2,w
  6940     07AA  2FAC               	goto	u4243
  6941     07AB  2FAD               	goto	u4244
  6942     07AC                     u4243:
  6943     07AC  02D6               	subwf	??___flge+2,f
  6944     07AD                     u4244:
  6945     07AD  084F               	movf	___flge@ff1+3,w
  6946     07AE  1C03               	skipc
  6947     07AF  0F4F               	incfsz	___flge@ff1+3,w
  6948     07B0  2FB2               	goto	u4245
  6949     07B1  2FB3               	goto	u4246
  6950     07B2                     u4245:
  6951     07B2  02D7               	subwf	??___flge+3,f
  6952     07B3                     u4246:
  6953     07B3  0857               	movf	??___flge+3,w
  6954     07B4  00CF               	movwf	___flge@ff1+3
  6955     07B5  0856               	movf	??___flge+2,w
  6956     07B6  00CE               	movwf	___flge@ff1+2
  6957     07B7  0855               	movf	??___flge+1,w
  6958     07B8  00CD               	movwf	___flge@ff1+1
  6959     07B9  0854               	movf	??___flge,w
  6960     07BA  00CC               	movwf	___flge@ff1
  6961     07BB                     l3317:
  6962     07BB  1FD3               	btfss	___flge@ff2+3,7
  6963     07BC  2FBE               	goto	u4251
  6964     07BD  2FBF               	goto	u4250
  6965     07BE                     u4251:
  6966     07BE  2FE3               	goto	l624
  6967     07BF                     u4250:
  6968     07BF                     l3319:
  6969     07BF  3000               	movlw	0
  6970     07C0  00D4               	movwf	??___flge
  6971     07C1  3000               	movlw	0
  6972     07C2  00D5               	movwf	??___flge+1
  6973     07C3  3000               	movlw	0
  6974     07C4  00D6               	movwf	??___flge+2
  6975     07C5  3080               	movlw	128
  6976     07C6  00D7               	movwf	??___flge+3
  6977     07C7  0850               	movf	___flge@ff2,w
  6978     07C8  02D4               	subwf	??___flge,f
  6979     07C9  0851               	movf	___flge@ff2+1,w
  6980     07CA  1C03               	skipc
  6981     07CB  0F51               	incfsz	___flge@ff2+1,w
  6982     07CC  2FCE               	goto	u4261
  6983     07CD  2FCF               	goto	u4262
  6984     07CE                     u4261:
  6985     07CE  02D5               	subwf	??___flge+1,f
  6986     07CF                     u4262:
  6987     07CF  0852               	movf	___flge@ff2+2,w
  6988     07D0  1C03               	skipc
  6989     07D1  0F52               	incfsz	___flge@ff2+2,w
  6990     07D2  2FD4               	goto	u4263
  6991     07D3  2FD5               	goto	u4264
  6992     07D4                     u4263:
  6993     07D4  02D6               	subwf	??___flge+2,f
  6994     07D5                     u4264:
  6995     07D5  0853               	movf	___flge@ff2+3,w
  6996     07D6  1C03               	skipc
  6997     07D7  0F53               	incfsz	___flge@ff2+3,w
  6998     07D8  2FDA               	goto	u4265
  6999     07D9  2FDB               	goto	u4266
  7000     07DA                     u4265:
  7001     07DA  02D7               	subwf	??___flge+3,f
  7002     07DB                     u4266:
  7003     07DB  0857               	movf	??___flge+3,w
  7004     07DC  00D3               	movwf	___flge@ff2+3
  7005     07DD  0856               	movf	??___flge+2,w
  7006     07DE  00D2               	movwf	___flge@ff2+2
  7007     07DF  0855               	movf	??___flge+1,w
  7008     07E0  00D1               	movwf	___flge@ff2+1
  7009     07E1  0854               	movf	??___flge,w
  7010     07E2  00D0               	movwf	___flge@ff2
  7011     07E3                     l624:
  7012     07E3  3080               	movlw	128
  7013     07E4  06CF               	xorwf	___flge@ff1+3,f
  7014     07E5  3080               	movlw	128
  7015     07E6  06D3               	xorwf	___flge@ff2+3,f
  7016     07E7  0853               	movf	___flge@ff2+3,w
  7017     07E8  024F               	subwf	___flge@ff1+3,w
  7018     07E9  1D03               	skipz
  7019     07EA  2FF5               	goto	u4275
  7020     07EB  0852               	movf	___flge@ff2+2,w
  7021     07EC  024E               	subwf	___flge@ff1+2,w
  7022     07ED  1D03               	skipz
  7023     07EE  2FF5               	goto	u4275
  7024     07EF  0851               	movf	___flge@ff2+1,w
  7025     07F0  024D               	subwf	___flge@ff1+1,w
  7026     07F1  1D03               	skipz
  7027     07F2  2FF5               	goto	u4275
  7028     07F3  0850               	movf	___flge@ff2,w
  7029     07F4  024C               	subwf	___flge@ff1,w
  7030     07F5                     u4275:
  7031     07F5  1803               	skipnc
  7032     07F6  2FF8               	goto	u4271
  7033     07F7  2FF9               	goto	u4270
  7034     07F8                     u4271:
  7035     07F8  2FFB               	goto	l3323
  7036     07F9                     u4270:
  7037     07F9                     l3321:
  7038     07F9  1003               	clrc
  7039     07FA  2FFC               	goto	l629
  7040     07FB                     l3323:
  7041     07FB  1403               	setc
  7042     07FC                     l629:
  7043     07FC  0008               	return
  7044     07FD                     __end_of___flge:
  7045                           
  7046                           	psect	text14
  7047     14E2                     __ptext14:	
  7048 ;; *************** function ___bmul *****************
  7049 ;; Defined at:
  7050 ;;		line 4 in file "C:\Program Files\Microchip\xc8\v3.00\pic\sources\c99\common\Umul8.c"
  7051 ;; Parameters:    Size  Location     Type
  7052 ;;  multiplier      1    wreg     unsigned char 
  7053 ;;  multiplicand    1    2[COMMON] unsigned char 
  7054 ;; Auto vars:     Size  Location     Type
  7055 ;;  multiplier      1    4[COMMON] unsigned char 
  7056 ;;  product         1    3[COMMON] unsigned char 
  7057 ;; Return value:  Size  Location     Type
  7058 ;;                  1    wreg      unsigned char 
  7059 ;; Registers used:
  7060 ;;		wreg, status,2, status,0
  7061 ;; Tracked objects:
  7062 ;;		On entry : 0/0
  7063 ;;		On exit  : 0/0
  7064 ;;		Unchanged: 0/0
  7065 ;; Data sizes:     COMMON   BANK0   BANK1   BANK3   BANK2
  7066 ;;      Params:         1       0       0       0       0
  7067 ;;      Locals:         2       0       0       0       0
  7068 ;;      Temps:          0       0       0       0       0
  7069 ;;      Totals:         3       0       0       0       0
  7070 ;;Total ram usage:        3 bytes
  7071 ;; Hardware stack levels used: 1
  7072 ;; Hardware stack levels required when called: 1
  7073 ;; This function calls:
  7074 ;;		Nothing
  7075 ;; This function is called by:
  7076 ;;		_run_program
  7077 ;; This function uses a non-reentrant model
  7078 ;;
  7079                           
  7080     14E2                     ___bmul:	
  7081                           ;psect for function ___bmul
  7082                           
  7083                           
  7084                           ;incstack = 0
  7085                           ; Regs used in ___bmul: [wreg+status,2+status,0]
  7086                           ;___bmul@multiplier stored from wreg
  7087     14E2  00F4               	movwf	___bmul@multiplier
  7088     14E3                     l3211:
  7089     14E3  01F3               	clrf	___bmul@product
  7090     14E4                     l3213:
  7091     14E4  1C74               	btfss	___bmul@multiplier,0
  7092     14E5  2CE7               	goto	u4001
  7093     14E6  2CE8               	goto	u4000
  7094     14E7                     u4001:
  7095     14E7  2CEA               	goto	l3217
  7096     14E8                     u4000:
  7097     14E8                     l3215:
  7098     14E8  0872               	movf	___bmul@multiplicand,w
  7099     14E9  07F3               	addwf	___bmul@product,f
  7100     14EA                     l3217:
  7101     14EA  1003               	clrc
  7102     14EB  0DF2               	rlf	___bmul@multiplicand,f
  7103     14EC                     l3219:
  7104     14EC  1003               	clrc
  7105     14ED  0CF4               	rrf	___bmul@multiplier,f
  7106     14EE  0874               	movf	___bmul@multiplier,w
  7107     14EF  1D03               	btfss	3,2
  7108     14F0  2CF2               	goto	u4011
  7109     14F1  2CF3               	goto	u4010
  7110     14F2                     u4011:
  7111     14F2  2CE4               	goto	l3213
  7112     14F3                     u4010:
  7113     14F3                     l3221:
  7114     14F3  0873               	movf	___bmul@product,w
  7115     14F4                     l469:
  7116     14F4  0008               	return
  7117     14F5                     __end_of___bmul:
  7118                           
  7119                           	psect	text15
  7120     16CE                     __ptext15:	
  7121 ;; *************** function ___awmod *****************
  7122 ;; Defined at:
  7123 ;;		line 5 in file "C:\Program Files\Microchip\xc8\v3.00\pic\sources\c99\common\awmod.c"
  7124 ;; Parameters:    Size  Location     Type
  7125 ;;  divisor         2    2[COMMON] int 
  7126 ;;  dividend        2    4[COMMON] int 
  7127 ;; Auto vars:     Size  Location     Type
  7128 ;;  sign            1    7[COMMON] unsigned char 
  7129 ;;  counter         1    6[COMMON] unsigned char 
  7130 ;; Return value:  Size  Location     Type
  7131 ;;                  2    2[COMMON] int 
  7132 ;; Registers used:
  7133 ;;		wreg, status,2, status,0
  7134 ;; Tracked objects:
  7135 ;;		On entry : 0/0
  7136 ;;		On exit  : 0/0
  7137 ;;		Unchanged: 0/0
  7138 ;; Data sizes:     COMMON   BANK0   BANK1   BANK3   BANK2
  7139 ;;      Params:         4       0       0       0       0
  7140 ;;      Locals:         2       0       0       0       0
  7141 ;;      Temps:          0       0       0       0       0
  7142 ;;      Totals:         6       0       0       0       0
  7143 ;;Total ram usage:        6 bytes
  7144 ;; Hardware stack levels used: 1
  7145 ;; Hardware stack levels required when called: 1
  7146 ;; This function calls:
  7147 ;;		Nothing
  7148 ;; This function is called by:
  7149 ;;		_washing_program_display
  7150 ;;		_water_level_screen
  7151 ;;		_run_program
  7152 ;; This function uses a non-reentrant model
  7153 ;;
  7154                           
  7155     16CE                     ___awmod:	
  7156                           ;psect for function ___awmod
  7157                           
  7158     16CE                     l3269:	
  7159                           ;incstack = 0
  7160                           ; Regs used in ___awmod: [wreg+status,2+status,0]
  7161                           
  7162     16CE  01F7               	clrf	___awmod@sign
  7163     16CF                     l3271:
  7164     16CF  1FF5               	btfss	___awmod@dividend+1,7
  7165     16D0  2ED2               	goto	u4121
  7166     16D1  2ED3               	goto	u4120
  7167     16D2                     u4121:
  7168     16D2  2EDA               	goto	l3277
  7169     16D3                     u4120:
  7170     16D3                     l3273:
  7171     16D3  09F4               	comf	___awmod@dividend,f
  7172     16D4  09F5               	comf	___awmod@dividend+1,f
  7173     16D5  0AF4               	incf	___awmod@dividend,f
  7174     16D6  1903               	skipnz
  7175     16D7  0AF5               	incf	___awmod@dividend+1,f
  7176     16D8                     l3275:
  7177     16D8  3001               	movlw	1
  7178     16D9  00F7               	movwf	___awmod@sign
  7179     16DA                     l3277:
  7180     16DA  1FF3               	btfss	___awmod@divisor+1,7
  7181     16DB  2EDD               	goto	u4131
  7182     16DC  2EDE               	goto	u4130
  7183     16DD                     u4131:
  7184     16DD  2EE3               	goto	l3281
  7185     16DE                     u4130:
  7186     16DE                     l3279:
  7187     16DE  09F2               	comf	___awmod@divisor,f
  7188     16DF  09F3               	comf	___awmod@divisor+1,f
  7189     16E0  0AF2               	incf	___awmod@divisor,f
  7190     16E1  1903               	skipnz
  7191     16E2  0AF3               	incf	___awmod@divisor+1,f
  7192     16E3                     l3281:
  7193     16E3  0872               	movf	___awmod@divisor,w
  7194     16E4  0473               	iorwf	___awmod@divisor+1,w
  7195     16E5  1903               	btfsc	3,2
  7196     16E6  2EE8               	goto	u4141
  7197     16E7  2EE9               	goto	u4140
  7198     16E8                     u4141:
  7199     16E8  2F16               	goto	l3299
  7200     16E9                     u4140:
  7201     16E9                     l3283:
  7202     16E9  3001               	movlw	1
  7203     16EA  00F6               	movwf	___awmod@counter
  7204     16EB  2EF5               	goto	l3289
  7205     16EC                     l3285:
  7206     16EC  3001               	movlw	1
  7207     16ED                     u4155:
  7208     16ED  1003               	clrc
  7209     16EE  0DF2               	rlf	___awmod@divisor,f
  7210     16EF  0DF3               	rlf	___awmod@divisor+1,f
  7211     16F0  3EFF               	addlw	-1
  7212     16F1  1D03               	skipz
  7213     16F2  2EED               	goto	u4155
  7214     16F3                     l3287:
  7215     16F3  3001               	movlw	1
  7216     16F4  07F6               	addwf	___awmod@counter,f
  7217     16F5                     l3289:
  7218     16F5  1FF3               	btfss	___awmod@divisor+1,7
  7219     16F6  2EF8               	goto	u4161
  7220     16F7  2EF9               	goto	u4160
  7221     16F8                     u4161:
  7222     16F8  2EEC               	goto	l3285
  7223     16F9                     u4160:
  7224     16F9                     l3291:
  7225     16F9  0873               	movf	___awmod@divisor+1,w
  7226     16FA  0275               	subwf	___awmod@dividend+1,w
  7227     16FB  1D03               	skipz
  7228     16FC  2EFF               	goto	u4175
  7229     16FD  0872               	movf	___awmod@divisor,w
  7230     16FE  0274               	subwf	___awmod@dividend,w
  7231     16FF                     u4175:
  7232     16FF  1C03               	skipc
  7233     1700  2F02               	goto	u4171
  7234     1701  2F03               	goto	u4170
  7235     1702                     u4171:
  7236     1702  2F09               	goto	l3295
  7237     1703                     u4170:
  7238     1703                     l3293:
  7239     1703  0872               	movf	___awmod@divisor,w
  7240     1704  02F4               	subwf	___awmod@dividend,f
  7241     1705  0873               	movf	___awmod@divisor+1,w
  7242     1706  1C03               	skipc
  7243     1707  03F5               	decf	___awmod@dividend+1,f
  7244     1708  02F5               	subwf	___awmod@dividend+1,f
  7245     1709                     l3295:
  7246     1709  3001               	movlw	1
  7247     170A                     u4185:
  7248     170A  1003               	clrc
  7249     170B  0CF3               	rrf	___awmod@divisor+1,f
  7250     170C  0CF2               	rrf	___awmod@divisor,f
  7251     170D  3EFF               	addlw	-1
  7252     170E  1D03               	skipz
  7253     170F  2F0A               	goto	u4185
  7254     1710                     l3297:
  7255     1710  3001               	movlw	1
  7256     1711  02F6               	subwf	___awmod@counter,f
  7257     1712  1D03               	btfss	3,2
  7258     1713  2F15               	goto	u4191
  7259     1714  2F16               	goto	u4190
  7260     1715                     u4191:
  7261     1715  2EF9               	goto	l3291
  7262     1716                     u4190:
  7263     1716                     l3299:
  7264     1716  0877               	movf	___awmod@sign,w
  7265     1717  1903               	btfsc	3,2
  7266     1718  2F1A               	goto	u4201
  7267     1719  2F1B               	goto	u4200
  7268     171A                     u4201:
  7269     171A  2F20               	goto	l3303
  7270     171B                     u4200:
  7271     171B                     l3301:
  7272     171B  09F4               	comf	___awmod@dividend,f
  7273     171C  09F5               	comf	___awmod@dividend+1,f
  7274     171D  0AF4               	incf	___awmod@dividend,f
  7275     171E  1903               	skipnz
  7276     171F  0AF5               	incf	___awmod@dividend+1,f
  7277     1720                     l3303:
  7278     1720  0875               	movf	___awmod@dividend+1,w
  7279     1721  00F3               	movwf	?___awmod+1
  7280     1722  0874               	movf	___awmod@dividend,w
  7281     1723  00F2               	movwf	?___awmod
  7282     1724                     l609:
  7283     1724  0008               	return
  7284     1725                     __end_of___awmod:
  7285                           
  7286                           	psect	text16
  7287     1725                     __ptext16:	
  7288 ;; *************** function ___awdiv *****************
  7289 ;; Defined at:
  7290 ;;		line 5 in file "C:\Program Files\Microchip\xc8\v3.00\pic\sources\c99\common\awdiv.c"
  7291 ;; Parameters:    Size  Location     Type
  7292 ;;  divisor         2    2[COMMON] int 
  7293 ;;  dividend        2    4[COMMON] int 
  7294 ;; Auto vars:     Size  Location     Type
  7295 ;;  quotient        2    2[BANK0 ] int 
  7296 ;;  sign            1    1[BANK0 ] unsigned char 
  7297 ;;  counter         1    0[BANK0 ] unsigned char 
  7298 ;; Return value:  Size  Location     Type
  7299 ;;                  2    2[COMMON] int 
  7300 ;; Registers used:
  7301 ;;		wreg, status,2, status,0
  7302 ;; Tracked objects:
  7303 ;;		On entry : 0/0
  7304 ;;		On exit  : 0/0
  7305 ;;		Unchanged: 0/0
  7306 ;; Data sizes:     COMMON   BANK0   BANK1   BANK3   BANK2
  7307 ;;      Params:         4       0       0       0       0
  7308 ;;      Locals:         0       4       0       0       0
  7309 ;;      Temps:          0       0       0       0       0
  7310 ;;      Totals:         4       4       0       0       0
  7311 ;;Total ram usage:        8 bytes
  7312 ;; Hardware stack levels used: 1
  7313 ;; Hardware stack levels required when called: 1
  7314 ;; This function calls:
  7315 ;;		Nothing
  7316 ;; This function is called by:
  7317 ;;		_run_program
  7318 ;; This function uses a non-reentrant model
  7319 ;;
  7320                           
  7321     1725                     ___awdiv:	
  7322                           ;psect for function ___awdiv
  7323                           
  7324     1725                     l4011:	
  7325                           ;incstack = 0
  7326                           ; Regs used in ___awdiv: [wreg+status,2+status,0]
  7327                           
  7328     1725  1283               	bcf	3,5	;RP0=0, select bank0
  7329     1726  1303               	bcf	3,6	;RP1=0, select bank0
  7330     1727  01A1               	clrf	___awdiv@sign
  7331     1728                     l4013:
  7332     1728  1FF3               	btfss	___awdiv@divisor+1,7
  7333     1729  2F2B               	goto	u5281
  7334     172A  2F2C               	goto	u5280
  7335     172B                     u5281:
  7336     172B  2F33               	goto	l4019
  7337     172C                     u5280:
  7338     172C                     l4015:
  7339     172C  09F2               	comf	___awdiv@divisor,f
  7340     172D  09F3               	comf	___awdiv@divisor+1,f
  7341     172E  0AF2               	incf	___awdiv@divisor,f
  7342     172F  1903               	skipnz
  7343     1730  0AF3               	incf	___awdiv@divisor+1,f
  7344     1731                     l4017:
  7345     1731  3001               	movlw	1
  7346     1732  00A1               	movwf	___awdiv@sign
  7347     1733                     l4019:
  7348     1733  1FF5               	btfss	___awdiv@dividend+1,7
  7349     1734  2F36               	goto	u5291
  7350     1735  2F37               	goto	u5290
  7351     1736                     u5291:
  7352     1736  2F3E               	goto	l4025
  7353     1737                     u5290:
  7354     1737                     l4021:
  7355     1737  09F4               	comf	___awdiv@dividend,f
  7356     1738  09F5               	comf	___awdiv@dividend+1,f
  7357     1739  0AF4               	incf	___awdiv@dividend,f
  7358     173A  1903               	skipnz
  7359     173B  0AF5               	incf	___awdiv@dividend+1,f
  7360     173C                     l4023:
  7361     173C  3001               	movlw	1
  7362     173D  06A1               	xorwf	___awdiv@sign,f
  7363     173E                     l4025:
  7364     173E  01A2               	clrf	___awdiv@quotient
  7365     173F  01A3               	clrf	___awdiv@quotient+1
  7366     1740                     l4027:
  7367     1740  0872               	movf	___awdiv@divisor,w
  7368     1741  0473               	iorwf	___awdiv@divisor+1,w
  7369     1742  1903               	btfsc	3,2
  7370     1743  2F45               	goto	u5301
  7371     1744  2F46               	goto	u5300
  7372     1745                     u5301:
  7373     1745  2F7B               	goto	l4047
  7374     1746                     u5300:
  7375     1746                     l4029:
  7376     1746  3001               	movlw	1
  7377     1747  00A0               	movwf	___awdiv@counter
  7378     1748  2F52               	goto	l4035
  7379     1749                     l4031:
  7380     1749  3001               	movlw	1
  7381     174A                     u5315:
  7382     174A  1003               	clrc
  7383     174B  0DF2               	rlf	___awdiv@divisor,f
  7384     174C  0DF3               	rlf	___awdiv@divisor+1,f
  7385     174D  3EFF               	addlw	-1
  7386     174E  1D03               	skipz
  7387     174F  2F4A               	goto	u5315
  7388     1750                     l4033:
  7389     1750  3001               	movlw	1
  7390     1751  07A0               	addwf	___awdiv@counter,f
  7391     1752                     l4035:
  7392     1752  1FF3               	btfss	___awdiv@divisor+1,7
  7393     1753  2F55               	goto	u5321
  7394     1754  2F56               	goto	u5320
  7395     1755                     u5321:
  7396     1755  2F49               	goto	l4031
  7397     1756                     u5320:
  7398     1756                     l4037:
  7399     1756  3001               	movlw	1
  7400     1757                     u5335:
  7401     1757  1003               	clrc
  7402     1758  0DA2               	rlf	___awdiv@quotient,f
  7403     1759  0DA3               	rlf	___awdiv@quotient+1,f
  7404     175A  3EFF               	addlw	-1
  7405     175B  1D03               	skipz
  7406     175C  2F57               	goto	u5335
  7407     175D  0873               	movf	___awdiv@divisor+1,w
  7408     175E  0275               	subwf	___awdiv@dividend+1,w
  7409     175F  1D03               	skipz
  7410     1760  2F63               	goto	u5345
  7411     1761  0872               	movf	___awdiv@divisor,w
  7412     1762  0274               	subwf	___awdiv@dividend,w
  7413     1763                     u5345:
  7414     1763  1C03               	skipc
  7415     1764  2F66               	goto	u5341
  7416     1765  2F67               	goto	u5340
  7417     1766                     u5341:
  7418     1766  2F6E               	goto	l4043
  7419     1767                     u5340:
  7420     1767                     l4039:
  7421     1767  0872               	movf	___awdiv@divisor,w
  7422     1768  02F4               	subwf	___awdiv@dividend,f
  7423     1769  0873               	movf	___awdiv@divisor+1,w
  7424     176A  1C03               	skipc
  7425     176B  03F5               	decf	___awdiv@dividend+1,f
  7426     176C  02F5               	subwf	___awdiv@dividend+1,f
  7427     176D                     l4041:
  7428     176D  1422               	bsf	___awdiv@quotient,0
  7429     176E                     l4043:
  7430     176E  3001               	movlw	1
  7431     176F                     u5355:
  7432     176F  1003               	clrc
  7433     1770  0CF3               	rrf	___awdiv@divisor+1,f
  7434     1771  0CF2               	rrf	___awdiv@divisor,f
  7435     1772  3EFF               	addlw	-1
  7436     1773  1D03               	skipz
  7437     1774  2F6F               	goto	u5355
  7438     1775                     l4045:
  7439     1775  3001               	movlw	1
  7440     1776  02A0               	subwf	___awdiv@counter,f
  7441     1777  1D03               	btfss	3,2
  7442     1778  2F7A               	goto	u5361
  7443     1779  2F7B               	goto	u5360
  7444     177A                     u5361:
  7445     177A  2F56               	goto	l4037
  7446     177B                     u5360:
  7447     177B                     l4047:
  7448     177B  0821               	movf	___awdiv@sign,w
  7449     177C  1903               	btfsc	3,2
  7450     177D  2F7F               	goto	u5371
  7451     177E  2F80               	goto	u5370
  7452     177F                     u5371:
  7453     177F  2F85               	goto	l4051
  7454     1780                     u5370:
  7455     1780                     l4049:
  7456     1780  09A2               	comf	___awdiv@quotient,f
  7457     1781  09A3               	comf	___awdiv@quotient+1,f
  7458     1782  0AA2               	incf	___awdiv@quotient,f
  7459     1783  1903               	skipnz
  7460     1784  0AA3               	incf	___awdiv@quotient+1,f
  7461     1785                     l4051:
  7462     1785  0823               	movf	___awdiv@quotient+1,w
  7463     1786  00F3               	movwf	?___awdiv+1
  7464     1787  0822               	movf	___awdiv@quotient,w
  7465     1788  00F2               	movwf	?___awdiv
  7466     1789                     l596:
  7467     1789  0008               	return
  7468     178A                     __end_of___awdiv:
  7469                           
  7470                           	psect	text17
  7471     1626                     __ptext17:	
  7472 ;; *************** function _read_digital_keypad *****************
  7473 ;; Defined at:
  7474 ;;		line 58 in file "digital_keypad.c"
  7475 ;; Parameters:    Size  Location     Type
  7476 ;;  mode            1    wreg     unsigned char 
  7477 ;; Auto vars:     Size  Location     Type
  7478 ;;  mode            1    2[COMMON] unsigned char 
  7479 ;;  key             1    3[COMMON] unsigned char 
  7480 ;; Return value:  Size  Location     Type
  7481 ;;                  1    wreg      unsigned char 
  7482 ;; Registers used:
  7483 ;;		wreg, status,2, status,0
  7484 ;; Tracked objects:
  7485 ;;		On entry : 0/0
  7486 ;;		On exit  : 0/0
  7487 ;;		Unchanged: 0/0
  7488 ;; Data sizes:     COMMON   BANK0   BANK1   BANK3   BANK2
  7489 ;;      Params:         0       0       0       0       0
  7490 ;;      Locals:         2       0       0       0       0
  7491 ;;      Temps:          0       0       0       0       0
  7492 ;;      Totals:         2       0       0       0       0
  7493 ;;Total ram usage:        2 bytes
  7494 ;; Hardware stack levels used: 1
  7495 ;; Hardware stack levels required when called: 1
  7496 ;; This function calls:
  7497 ;;		Nothing
  7498 ;; This function is called by:
  7499 ;;		_main
  7500 ;; This function uses a non-reentrant model
  7501 ;;
  7502                           
  7503     1626                     _read_digital_keypad:	
  7504                           ;psect for function _read_digital_keypad
  7505                           
  7506                           
  7507                           ;incstack = 0
  7508                           ; Regs used in _read_digital_keypad: [wreg+status,2+status,0]
  7509                           ;read_digital_keypad@mode stored from wreg
  7510     1626  00F2               	movwf	read_digital_keypad@mode
  7511     1627                     l3569:
  7512                           
  7513                           ;digital_keypad.c: 59:     static unsigned char once = 1;;digital_keypad.c: 61:     stat
      +                          ic unsigned char long_press_count = 0;;digital_keypad.c: 62:     static unsigned char pr
      +                          e_key = 0x3F;;digital_keypad.c: 64:     unsigned char key = PORTB & 0x3F;
  7514     1627  1283               	bcf	3,5	;RP0=0, select bank0
  7515     1628  1303               	bcf	3,6	;RP1=0, select bank0
  7516     1629  0806               	movf	6,w	;volatile
  7517     162A  00F3               	movwf	read_digital_keypad@key
  7518     162B                     l3571:
  7519     162B  303F               	movlw	63
  7520     162C  05F3               	andwf	read_digital_keypad@key,f
  7521     162D                     l3573:
  7522                           
  7523                           ;digital_keypad.c: 66:     if (mode == 0) {
  7524     162D  0872               	movf	read_digital_keypad@mode,w
  7525     162E  1D03               	btfss	3,2
  7526     162F  2E31               	goto	u4891
  7527     1630  2E32               	goto	u4890
  7528     1631                     u4891:
  7529     1631  2E34               	goto	l3581
  7530     1632                     u4890:
  7531     1632                     l3575:
  7532                           
  7533                           ;digital_keypad.c: 67:         return key;
  7534     1632  0873               	movf	read_digital_keypad@key,w
  7535     1633  2E76               	goto	l123
  7536     1634                     l3581:
  7537                           
  7538                           ;digital_keypad.c: 69:         if ((key != 0x3F) && once) {
  7539     1634  303F               	movlw	63
  7540     1635  0673               	xorwf	read_digital_keypad@key,w
  7541     1636  1903               	btfsc	3,2
  7542     1637  2E39               	goto	u4901
  7543     1638  2E3A               	goto	u4900
  7544     1639                     u4901:
  7545     1639  2E44               	goto	l3591
  7546     163A                     u4900:
  7547     163A                     l3583:
  7548     163A  087A               	movf	read_digital_keypad@once,w
  7549     163B  1903               	btfsc	3,2
  7550     163C  2E3E               	goto	u4911
  7551     163D  2E3F               	goto	u4910
  7552     163E                     u4911:
  7553     163E  2E44               	goto	l3591
  7554     163F                     u4910:
  7555     163F                     l3585:
  7556                           
  7557                           ;digital_keypad.c: 70:             once = 0;
  7558     163F  01FA               	clrf	read_digital_keypad@once
  7559     1640                     l3587:
  7560                           
  7561                           ;digital_keypad.c: 71:             pre_key = key;
  7562     1640  0873               	movf	read_digital_keypad@key,w
  7563     1641  00F9               	movwf	read_digital_keypad@pre_key
  7564     1642                     l3589:
  7565                           
  7566                           ;digital_keypad.c: 72:             long_press_count = 0;
  7567     1642  01FB               	clrf	read_digital_keypad@long_press_count
  7568                           
  7569                           ;digital_keypad.c: 73:         } else if ((key != 0x3F) && !once) {
  7570     1643  2E75               	goto	l3619
  7571     1644                     l3591:
  7572     1644  303F               	movlw	63
  7573     1645  0673               	xorwf	read_digital_keypad@key,w
  7574     1646  1903               	btfsc	3,2
  7575     1647  2E49               	goto	u4921
  7576     1648  2E4A               	goto	u4920
  7577     1649                     u4921:
  7578     1649  2E60               	goto	l3607
  7579     164A                     u4920:
  7580     164A                     l3593:
  7581     164A  087A               	movf	read_digital_keypad@once,w
  7582     164B  1D03               	btfss	3,2
  7583     164C  2E4E               	goto	u4931
  7584     164D  2E4F               	goto	u4930
  7585     164E                     u4931:
  7586     164E  2E60               	goto	l3607
  7587     164F                     u4930:
  7588     164F                     l3595:
  7589                           
  7590                           ;digital_keypad.c: 74:             long_press_count++;
  7591     164F  3001               	movlw	1
  7592     1650  07FB               	addwf	read_digital_keypad@long_press_count,f
  7593     1651                     l3597:
  7594                           
  7595                           ;digital_keypad.c: 76:             if (long_press_count > 10 && key == 0x37) {
  7596     1651  300B               	movlw	11
  7597     1652  027B               	subwf	read_digital_keypad@long_press_count,w
  7598     1653  1C03               	skipc
  7599     1654  2E56               	goto	u4941
  7600     1655  2E57               	goto	u4940
  7601     1656                     u4941:
  7602     1656  2E75               	goto	l3619
  7603     1657                     u4940:
  7604     1657                     l3599:
  7605     1657  3037               	movlw	55
  7606     1658  0673               	xorwf	read_digital_keypad@key,w
  7607     1659  1D03               	btfss	3,2
  7608     165A  2E5C               	goto	u4951
  7609     165B  2E5D               	goto	u4950
  7610     165C                     u4951:
  7611     165C  2E75               	goto	l3619
  7612     165D                     u4950:
  7613     165D                     l3601:
  7614                           
  7615                           ;digital_keypad.c: 77:                 long_press_count = 0;
  7616     165D  01FB               	clrf	read_digital_keypad@long_press_count
  7617     165E                     l3603:
  7618                           
  7619                           ;digital_keypad.c: 78:                 return 0x99;
  7620     165E  3099               	movlw	153
  7621     165F  2E76               	goto	l123
  7622     1660                     l3607:
  7623     1660  303F               	movlw	63
  7624     1661  0673               	xorwf	read_digital_keypad@key,w
  7625     1662  1D03               	btfss	3,2
  7626     1663  2E65               	goto	u4961
  7627     1664  2E66               	goto	u4960
  7628     1665                     u4961:
  7629     1665  2E75               	goto	l126
  7630     1666                     u4960:
  7631     1666                     l3609:
  7632     1666  087A               	movf	read_digital_keypad@once,w
  7633     1667  1D03               	btfss	3,2
  7634     1668  2E6A               	goto	u4971
  7635     1669  2E6B               	goto	u4970
  7636     166A                     u4971:
  7637     166A  2E75               	goto	l126
  7638     166B                     u4970:
  7639     166B                     l3611:
  7640                           
  7641                           ;digital_keypad.c: 81:             once = 1;
  7642     166B  3001               	movlw	1
  7643     166C  00FA               	movwf	read_digital_keypad@once
  7644     166D                     l3613:
  7645                           
  7646                           ;digital_keypad.c: 82:             if (long_press_count <= 10) {
  7647     166D  300B               	movlw	11
  7648     166E  027B               	subwf	read_digital_keypad@long_press_count,w
  7649     166F  1803               	skipnc
  7650     1670  2E72               	goto	u4981
  7651     1671  2E73               	goto	u4980
  7652     1672                     u4981:
  7653     1672  2E75               	goto	l126
  7654     1673                     u4980:
  7655     1673                     l3615:
  7656                           
  7657                           ;digital_keypad.c: 83:                 return pre_key;
  7658     1673  0879               	movf	read_digital_keypad@pre_key,w
  7659     1674  2E76               	goto	l123
  7660     1675                     l126:
  7661     1675                     l3619:
  7662                           
  7663                           ;digital_keypad.c: 88:     return 0x3F;
  7664     1675  303F               	movlw	63
  7665     1676                     l123:
  7666     1676  0008               	return
  7667     1677                     __end_of_read_digital_keypad:
  7668                           
  7669                           	psect	text18
  7670     0938                     __ptext18:	
  7671 ;; *************** function _power_on_screen *****************
  7672 ;; Defined at:
  7673 ;;		line 11 in file "Washing_Machine_Function_def.c"
  7674 ;; Parameters:    Size  Location     Type
  7675 ;;		None
  7676 ;; Auto vars:     Size  Location     Type
  7677 ;;  i               2   10[BANK0 ] unsigned int 
  7678 ;;  i               2    8[BANK0 ] unsigned int 
  7679 ;; Return value:  Size  Location     Type
  7680 ;;                  1    wreg      void 
  7681 ;; Registers used:
  7682 ;;		wreg, fsr0l, fsr0h, status,2, status,0, btemp+1, pclath, cstack
  7683 ;; Tracked objects:
  7684 ;;		On entry : 0/0
  7685 ;;		On exit  : 0/0
  7686 ;;		Unchanged: 0/0
  7687 ;; Data sizes:     COMMON   BANK0   BANK1   BANK3   BANK2
  7688 ;;      Params:         0       0       0       0       0
  7689 ;;      Locals:         0       4       0       0       0
  7690 ;;      Temps:          0       3       0       0       0
  7691 ;;      Totals:         0       7       0       0       0
  7692 ;;Total ram usage:        7 bytes
  7693 ;; Hardware stack levels used: 1
  7694 ;; Hardware stack levels required when called: 3
  7695 ;; This function calls:
  7696 ;;		_clcd_print
  7697 ;;		_clcd_putch
  7698 ;; This function is called by:
  7699 ;;		_main
  7700 ;; This function uses a non-reentrant model
  7701 ;;
  7702                           
  7703     0938                     _power_on_screen:	
  7704                           ;psect for function _power_on_screen
  7705                           
  7706     0938                     l3623:	
  7707                           ;incstack = 0
  7708                           ; Regs used in _power_on_screen: [wreg-fsr0h+status,2+status,0+btemp+1+pclath+cstack]
  7709                           
  7710                           
  7711                           ;Washing_Machine_Function_def.c: 13:     for (unsigned int i = 0; i < 16; i++) {
  7712     0938  1283               	bcf	3,5	;RP0=0, select bank0
  7713     0939  1303               	bcf	3,6	;RP1=0, select bank0
  7714     093A  01A8               	clrf	power_on_screen@i
  7715     093B  01A9               	clrf	power_on_screen@i+1
  7716     093C                     l3629:
  7717                           
  7718                           ;Washing_Machine_Function_def.c: 14:         clcd_putch(0xFF, (0x80 + i));
  7719     093C  0828               	movf	power_on_screen@i,w
  7720     093D  3E80               	addlw	128
  7721     093E  00F8               	movwf	clcd_putch@addr
  7722     093F  30FF               	movlw	255
  7723     0940  160A  118A  2508  120A  158A  	fcall	_clcd_putch
  7724     0945                     l3631:
  7725                           
  7726                           ;Washing_Machine_Function_def.c: 15:         _delay((unsigned long)((100)*(20000000/4000
      +                          .0)));
  7727     0945  3003               	movlw	3
  7728     0946  1283               	bcf	3,5	;RP0=0, select bank0
  7729     0947  1303               	bcf	3,6	;RP1=0, select bank0
  7730     0948  00A7               	movwf	??_power_on_screen+2
  7731     0949  308A               	movlw	138
  7732     094A  00A6               	movwf	??_power_on_screen+1
  7733     094B  3055               	movlw	85
  7734     094C  00A5               	movwf	??_power_on_screen
  7735     094D                     u5627:
  7736     094D  0BA5               	decfsz	??_power_on_screen,f
  7737     094E  294D               	goto	u5627
  7738     094F  0BA6               	decfsz	??_power_on_screen+1,f
  7739     0950  294D               	goto	u5627
  7740     0951  0BA7               	decfsz	??_power_on_screen+2,f
  7741     0952  294D               	goto	u5627
  7742     0953                     l3633:
  7743                           
  7744                           ;Washing_Machine_Function_def.c: 16:     }
  7745     0953  3001               	movlw	1
  7746     0954  1283               	bcf	3,5	;RP0=0, select bank0
  7747     0955  1303               	bcf	3,6	;RP1=0, select bank0
  7748     0956  07A8               	addwf	power_on_screen@i,f
  7749     0957  1803               	skipnc
  7750     0958  0AA9               	incf	power_on_screen@i+1,f
  7751     0959  3000               	movlw	0
  7752     095A  07A9               	addwf	power_on_screen@i+1,f
  7753     095B                     l3635:
  7754     095B  3000               	movlw	0
  7755     095C  0229               	subwf	power_on_screen@i+1,w
  7756     095D  3010               	movlw	16
  7757     095E  1903               	skipnz
  7758     095F  0228               	subwf	power_on_screen@i,w
  7759     0960  1C03               	skipc
  7760     0961  2963               	goto	u4991
  7761     0962  2964               	goto	u4990
  7762     0963                     u4991:
  7763     0963  293C               	goto	l3629
  7764     0964                     u4990:
  7765     0964                     l3637:
  7766                           
  7767                           ;Washing_Machine_Function_def.c: 17:     clcd_putch(0xFF, (0x80 + 1));
  7768     0964  3081               	movlw	129
  7769     0965  00F8               	movwf	clcd_putch@addr
  7770     0966  30FF               	movlw	255
  7771     0967  160A  118A  2508  120A  158A  	fcall	_clcd_putch
  7772                           
  7773                           ;Washing_Machine_Function_def.c: 18:     clcd_putch(0xFF, (0x80 + 2));
  7774     096C  3082               	movlw	130
  7775     096D  00F8               	movwf	clcd_putch@addr
  7776     096E  30FF               	movlw	255
  7777     096F  160A  118A  2508  120A  158A  	fcall	_clcd_putch
  7778     0974                     l3639:
  7779                           
  7780                           ;Washing_Machine_Function_def.c: 20:     _delay((unsigned long)((500)*(20000000/4000.0))
      +                          );
  7781     0974  300D               	movlw	13
  7782     0975  1283               	bcf	3,5	;RP0=0, select bank0
  7783     0976  1303               	bcf	3,6	;RP1=0, select bank0
  7784     0977  00A7               	movwf	??_power_on_screen+2
  7785     0978  30AF               	movlw	175
  7786     0979  00A6               	movwf	??_power_on_screen+1
  7787     097A  30B5               	movlw	181
  7788     097B  00A5               	movwf	??_power_on_screen
  7789     097C                     u5637:
  7790     097C  0BA5               	decfsz	??_power_on_screen,f
  7791     097D  297C               	goto	u5637
  7792     097E  0BA6               	decfsz	??_power_on_screen+1,f
  7793     097F  297C               	goto	u5637
  7794     0980  0BA7               	decfsz	??_power_on_screen+2,f
  7795     0981  297C               	goto	u5637
  7796     0982  2983               	nop2
  7797     0983                     l3641:
  7798                           
  7799                           ;Washing_Machine_Function_def.c: 22:     clcd_print("Powering On", (0xC0 + 1));
  7800     0983  3090               	movlw	low (STR_24| (0+32768))
  7801     0984  1283               	bcf	3,5	;RP0=0, select bank0
  7802     0985  1303               	bcf	3,6	;RP1=0, select bank0
  7803     0986  00A0               	movwf	clcd_print@str
  7804     0987  3090               	movlw	high (STR_24| (0+32768))
  7805     0988  00A1               	movwf	clcd_print@str+1
  7806     0989  30C1               	movlw	193
  7807     098A  00A2               	movwf	clcd_print@addr
  7808     098B  160A  118A  25A6  120A  158A  	fcall	_clcd_print
  7809     0990                     l3643:
  7810                           
  7811                           ;Washing_Machine_Function_def.c: 23:     clcd_print("Washing Machine", (0x90 + 1));
  7812     0990  3022               	movlw	low (STR_3| (0+32768))
  7813     0991  1283               	bcf	3,5	;RP0=0, select bank0
  7814     0992  1303               	bcf	3,6	;RP1=0, select bank0
  7815     0993  00A0               	movwf	clcd_print@str
  7816     0994  3090               	movlw	high (STR_3| (0+32768))
  7817     0995  00A1               	movwf	clcd_print@str+1
  7818     0996  3091               	movlw	145
  7819     0997  00A2               	movwf	clcd_print@addr
  7820     0998  160A  118A  25A6  120A  158A  	fcall	_clcd_print
  7821     099D                     l3645:
  7822                           
  7823                           ;Washing_Machine_Function_def.c: 25:     for (unsigned int i = 0; i < 16; i++) {
  7824     099D  1283               	bcf	3,5	;RP0=0, select bank0
  7825     099E  1303               	bcf	3,6	;RP1=0, select bank0
  7826     099F  01AA               	clrf	power_on_screen@i_194
  7827     09A0  01AB               	clrf	power_on_screen@i_194+1
  7828     09A1                     l3651:
  7829                           
  7830                           ;Washing_Machine_Function_def.c: 26:         clcd_putch(0xFF, (0xD0 + i));
  7831     09A1  082A               	movf	power_on_screen@i_194,w
  7832     09A2  3ED0               	addlw	208
  7833     09A3  00F8               	movwf	clcd_putch@addr
  7834     09A4  30FF               	movlw	255
  7835     09A5  160A  118A  2508  120A  158A  	fcall	_clcd_putch
  7836     09AA                     l3653:
  7837                           
  7838                           ;Washing_Machine_Function_def.c: 27:         _delay((unsigned long)((100)*(20000000/4000
      +                          .0)));
  7839     09AA  3003               	movlw	3
  7840     09AB  1283               	bcf	3,5	;RP0=0, select bank0
  7841     09AC  1303               	bcf	3,6	;RP1=0, select bank0
  7842     09AD  00A7               	movwf	??_power_on_screen+2
  7843     09AE  308A               	movlw	138
  7844     09AF  00A6               	movwf	??_power_on_screen+1
  7845     09B0  3055               	movlw	85
  7846     09B1  00A5               	movwf	??_power_on_screen
  7847     09B2                     u5647:
  7848     09B2  0BA5               	decfsz	??_power_on_screen,f
  7849     09B3  29B2               	goto	u5647
  7850     09B4  0BA6               	decfsz	??_power_on_screen+1,f
  7851     09B5  29B2               	goto	u5647
  7852     09B6  0BA7               	decfsz	??_power_on_screen+2,f
  7853     09B7  29B2               	goto	u5647
  7854     09B8                     l3655:
  7855                           
  7856                           ;Washing_Machine_Function_def.c: 28:     }
  7857     09B8  3001               	movlw	1
  7858     09B9  1283               	bcf	3,5	;RP0=0, select bank0
  7859     09BA  1303               	bcf	3,6	;RP1=0, select bank0
  7860     09BB  07AA               	addwf	power_on_screen@i_194,f
  7861     09BC  1803               	skipnc
  7862     09BD  0AAB               	incf	power_on_screen@i_194+1,f
  7863     09BE  3000               	movlw	0
  7864     09BF  07AB               	addwf	power_on_screen@i_194+1,f
  7865     09C0                     l3657:
  7866     09C0  3000               	movlw	0
  7867     09C1  022B               	subwf	power_on_screen@i_194+1,w
  7868     09C2  3010               	movlw	16
  7869     09C3  1903               	skipnz
  7870     09C4  022A               	subwf	power_on_screen@i_194,w
  7871     09C5  1C03               	skipc
  7872     09C6  29C8               	goto	u5001
  7873     09C7  29C9               	goto	u5000
  7874     09C8                     u5001:
  7875     09C8  29A1               	goto	l3651
  7876     09C9                     u5000:
  7877     09C9                     l3659:
  7878                           
  7879                           ;Washing_Machine_Function_def.c: 30:     _delay((unsigned long)((2000)*(20000000/4000.0)
      +                          ));
  7880     09C9  3033               	movlw	51
  7881     09CA  1283               	bcf	3,5	;RP0=0, select bank0
  7882     09CB  1303               	bcf	3,6	;RP1=0, select bank0
  7883     09CC  00A7               	movwf	??_power_on_screen+2
  7884     09CD  30BB               	movlw	187
  7885     09CE  00A6               	movwf	??_power_on_screen+1
  7886     09CF  30DF               	movlw	223
  7887     09D0  00A5               	movwf	??_power_on_screen
  7888     09D1                     u5657:
  7889     09D1  0BA5               	decfsz	??_power_on_screen,f
  7890     09D2  29D1               	goto	u5657
  7891     09D3  0BA6               	decfsz	??_power_on_screen+1,f
  7892     09D4  29D1               	goto	u5657
  7893     09D5  0BA7               	decfsz	??_power_on_screen+2,f
  7894     09D6  29D1               	goto	u5657
  7895     09D7                     l213:
  7896     09D7  0008               	return
  7897     09D8                     __end_of_power_on_screen:
  7898                           
  7899                           	psect	text19
  7900     1508                     __ptext19:	
  7901 ;; *************** function _clcd_putch *****************
  7902 ;; Defined at:
  7903 ;;		line 49 in file "clcd.c"
  7904 ;; Parameters:    Size  Location     Type
  7905 ;;  data            1    wreg     const unsigned char 
  7906 ;;  addr            1    8[COMMON] unsigned char 
  7907 ;; Auto vars:     Size  Location     Type
  7908 ;;  data            1    4[BANK0 ] const unsigned char 
  7909 ;; Return value:  Size  Location     Type
  7910 ;;                  1    wreg      void 
  7911 ;; Registers used:
  7912 ;;		wreg, status,2, status,0, pclath, cstack
  7913 ;; Tracked objects:
  7914 ;;		On entry : 0/0
  7915 ;;		On exit  : 0/0
  7916 ;;		Unchanged: 0/0
  7917 ;; Data sizes:     COMMON   BANK0   BANK1   BANK3   BANK2
  7918 ;;      Params:         1       0       0       0       0
  7919 ;;      Locals:         0       1       0       0       0
  7920 ;;      Temps:          0       0       0       0       0
  7921 ;;      Totals:         1       1       0       0       0
  7922 ;;Total ram usage:        2 bytes
  7923 ;; Hardware stack levels used: 1
  7924 ;; Hardware stack levels required when called: 2
  7925 ;; This function calls:
  7926 ;;		_clcd_write
  7927 ;; This function is called by:
  7928 ;;		_power_on_screen
  7929 ;;		_washing_program_display
  7930 ;;		_water_level_screen
  7931 ;;		_run_program
  7932 ;; This function uses a non-reentrant model
  7933 ;;
  7934                           
  7935     1508                     _clcd_putch:	
  7936                           ;psect for function _clcd_putch
  7937                           
  7938                           
  7939                           ;incstack = 0
  7940                           ; Regs used in _clcd_putch: [wreg+status,2+status,0+pclath+cstack]
  7941                           ;clcd_putch@data stored from wreg
  7942     1508  1283               	bcf	3,5	;RP0=0, select bank0
  7943     1509  1303               	bcf	3,6	;RP1=0, select bank0
  7944     150A  00A4               	movwf	clcd_putch@data
  7945     150B                     l3187:
  7946                           
  7947                           ;clcd.c: 49: void clcd_putch(const char data, unsigned char addr);clcd.c: 50: {;clcd.c: 
      +                          51:     clcd_write(addr, 0);
  7948     150B  01F2               	clrf	clcd_write@mode
  7949     150C  0878               	movf	clcd_putch@addr,w
  7950     150D  120A  158A  2001  160A  118A  	fcall	_clcd_write
  7951                           
  7952                           ;clcd.c: 52:     clcd_write(data, 1);
  7953     1512  01F2               	clrf	clcd_write@mode
  7954     1513  0AF2               	incf	clcd_write@mode,f
  7955     1514  1283               	bcf	3,5	;RP0=0, select bank0
  7956     1515  1303               	bcf	3,6	;RP1=0, select bank0
  7957     1516  0824               	movf	clcd_putch@data,w
  7958     1517  120A  158A  2001  160A  118A  	fcall	_clcd_write
  7959     151C                     l100:
  7960     151C  0008               	return
  7961     151D                     __end_of_clcd_putch:
  7962                           
  7963                           	psect	text20
  7964     15A6                     __ptext20:	
  7965 ;; *************** function _clcd_print *****************
  7966 ;; Defined at:
  7967 ;;		line 55 in file "clcd.c"
  7968 ;; Parameters:    Size  Location     Type
  7969 ;;  str             2    0[BANK0 ] PTR const unsigned char 
  7970 ;;		 -> STR_49(11), STR_48(12), STR_47(5), STR_46(9), 
  7971 ;;		 -> STR_45(5), STR_44(14), STR_43(13), STR_42(15), 
  7972 ;;		 -> STR_41(17), STR_40(5), STR_39(5), STR_38(5), 
  7973 ;;		 -> STR_37(6), STR_36(5), STR_35(6), STR_34(5), 
  7974 ;;		 -> STR_33(11), STR_32(12), STR_31(5), STR_30(9), 
  7975 ;;		 -> STR_29(5), STR_28(6), STR_27(13), STR_26(17), 
  7976 ;;		 -> STR_25(16), STR_24(12), STR_23(4), STR_22(5), 
  7977 ;;		 -> STR_21(7), STR_20(4), STR_19(5), STR_18(11), 
  7978 ;;		 -> STR_17(10), STR_16(9), STR_15(10), STR_14(11), 
  7979 ;;		 -> STR_13(8), STR_12(11), STR_11(11), STR_10(7), 
  7980 ;;		 -> STR_9(10), STR_8(6), STR_7(6), STR_6(10), 
  7981 ;;		 -> STR_5(11), STR_4(13), STR_3(16), STR_2(9), 
  7982 ;;		 -> STR_1(14), 
  7983 ;;  addr            1    2[BANK0 ] unsigned char 
  7984 ;; Auto vars:     Size  Location     Type
  7985 ;;		None
  7986 ;; Return value:  Size  Location     Type
  7987 ;;                  1    wreg      void 
  7988 ;; Registers used:
  7989 ;;		wreg, fsr0l, fsr0h, status,2, status,0, btemp+1, pclath, cstack
  7990 ;; Tracked objects:
  7991 ;;		On entry : 0/0
  7992 ;;		On exit  : 0/0
  7993 ;;		Unchanged: 0/0
  7994 ;; Data sizes:     COMMON   BANK0   BANK1   BANK3   BANK2
  7995 ;;      Params:         0       3       0       0       0
  7996 ;;      Locals:         0       0       0       0       0
  7997 ;;      Temps:          0       0       0       0       0
  7998 ;;      Totals:         0       3       0       0       0
  7999 ;;Total ram usage:        3 bytes
  8000 ;; Hardware stack levels used: 1
  8001 ;; Hardware stack levels required when called: 2
  8002 ;; This function calls:
  8003 ;;		_clcd_write
  8004 ;; This function is called by:
  8005 ;;		_main
  8006 ;;		_power_on_screen
  8007 ;;		_washing_program_display
  8008 ;;		_water_level_screen
  8009 ;;		_run_program
  8010 ;;		_door_status_check
  8011 ;; This function uses a non-reentrant model
  8012 ;;
  8013                           
  8014     15A6                     _clcd_print:	
  8015                           ;psect for function _clcd_print
  8016                           
  8017     15A6                     l2931:	
  8018                           ;incstack = 0
  8019                           ; Regs used in _clcd_print: [wreg-fsr0h+status,2+status,0+btemp+1+pclath+cstack]
  8020                           
  8021                           
  8022                           ;clcd.c: 55: void clcd_print(const char *str, unsigned char addr);clcd.c: 56: {;clcd.c: 
      +                          57:     clcd_write(addr, 0);
  8023     15A6  01F2               	clrf	clcd_write@mode
  8024     15A7  1283               	bcf	3,5	;RP0=0, select bank0
  8025     15A8  1303               	bcf	3,6	;RP1=0, select bank0
  8026     15A9  0822               	movf	clcd_print@addr,w
  8027     15AA  120A  158A  2001  160A  118A  	fcall	_clcd_write
  8028                           
  8029                           ;clcd.c: 59:     while (*str != '\0')
  8030     15AF  2DC8               	goto	l2937
  8031     15B0                     l2933:
  8032                           
  8033                           ;clcd.c: 60:     {;clcd.c: 61:         clcd_write(*str, 1);
  8034     15B0  01F2               	clrf	clcd_write@mode
  8035     15B1  0AF2               	incf	clcd_write@mode,f
  8036     15B2  0821               	movf	clcd_print@str+1,w
  8037     15B3  00FF               	movwf	btemp+1
  8038     15B4  0820               	movf	clcd_print@str,w
  8039     15B5  0084               	movwf	4
  8040     15B6  160A  118A  2170  160A  118A  	fcall	stringtab
  8041     15BB  120A  158A  2001  160A  118A  	fcall	_clcd_write
  8042     15C0                     l2935:
  8043                           
  8044                           ;clcd.c: 62:         str++;
  8045     15C0  3001               	movlw	1
  8046     15C1  1283               	bcf	3,5	;RP0=0, select bank0
  8047     15C2  1303               	bcf	3,6	;RP1=0, select bank0
  8048     15C3  07A0               	addwf	clcd_print@str,f
  8049     15C4  1803               	skipnc
  8050     15C5  0AA1               	incf	clcd_print@str+1,f
  8051     15C6  3000               	movlw	0
  8052     15C7  07A1               	addwf	clcd_print@str+1,f
  8053     15C8                     l2937:
  8054                           
  8055                           ;clcd.c: 59:     while (*str != '\0')
  8056     15C8  1283               	bcf	3,5	;RP0=0, select bank0
  8057     15C9  1303               	bcf	3,6	;RP1=0, select bank0
  8058     15CA  0821               	movf	clcd_print@str+1,w
  8059     15CB  00FF               	movwf	btemp+1
  8060     15CC  0820               	movf	clcd_print@str,w
  8061     15CD  0084               	movwf	4
  8062     15CE  160A  118A  2170  160A  118A  	fcall	stringtab
  8063     15D3  3A00               	xorlw	0
  8064     15D4  1D03               	skipz
  8065     15D5  2DD7               	goto	u3481
  8066     15D6  2DD8               	goto	u3480
  8067     15D7                     u3481:
  8068     15D7  2DB0               	goto	l2933
  8069     15D8                     u3480:
  8070     15D8                     l106:
  8071     15D8  0008               	return
  8072     15D9                     __end_of_clcd_print:
  8073                           
  8074                           	psect	text21
  8075     151D                     __ptext21:	
  8076 ;; *************** function _init_config *****************
  8077 ;; Defined at:
  8078 ;;		line 186 in file "main.c"
  8079 ;; Parameters:    Size  Location     Type
  8080 ;;		None
  8081 ;; Auto vars:     Size  Location     Type
  8082 ;;		None
  8083 ;; Return value:  Size  Location     Type
  8084 ;;                  1    wreg      void 
  8085 ;; Registers used:
  8086 ;;		wreg, status,2, status,0, pclath, cstack
  8087 ;; Tracked objects:
  8088 ;;		On entry : 0/0
  8089 ;;		On exit  : 0/0
  8090 ;;		Unchanged: 0/0
  8091 ;; Data sizes:     COMMON   BANK0   BANK1   BANK3   BANK2
  8092 ;;      Params:         0       0       0       0       0
  8093 ;;      Locals:         0       0       0       0       0
  8094 ;;      Temps:          0       0       0       0       0
  8095 ;;      Totals:         0       0       0       0       0
  8096 ;;Total ram usage:        0 bytes
  8097 ;; Hardware stack levels used: 1
  8098 ;; Hardware stack levels required when called: 4
  8099 ;; This function calls:
  8100 ;;		_init_clcd
  8101 ;;		_init_digital_keypad
  8102 ;;		_init_timer2
  8103 ;; This function is called by:
  8104 ;;		_main
  8105 ;; This function uses a non-reentrant model
  8106 ;;
  8107                           
  8108     151D                     _init_config:	
  8109                           ;psect for function _init_config
  8110                           
  8111     151D                     l3553:	
  8112                           ;incstack = 0
  8113                           ; Regs used in _init_config: [wreg+status,2+status,0+pclath+cstack]
  8114                           
  8115     151D  160A  118A  24C6  160A  118A  	fcall	_init_clcd
  8116     1522  160A  118A  24B7  160A  118A  	fcall	_init_digital_keypad
  8117     1527                     l3555:
  8118     1527  160A  118A  24BD  160A  118A  	fcall	_init_timer2
  8119     152C                     l3557:
  8120     152C  178B               	bsf	11,7	;volatile
  8121     152D                     l3559:
  8122     152D  170B               	bsf	11,6	;volatile
  8123     152E                     l3561:
  8124     152E  1683               	bsf	3,5	;RP0=1, select bank1
  8125     152F  1303               	bcf	3,6	;RP1=0, select bank1
  8126     1530  1087               	bcf	7,1	;volatile
  8127     1531                     l3563:
  8128     1531  1107               	bcf	7,2	;volatile
  8129     1532                     l3565:
  8130     1532  1283               	bcf	3,5	;RP0=0, select bank0
  8131     1533  1303               	bcf	3,6	;RP1=0, select bank0
  8132     1534  1087               	bcf	7,1	;volatile
  8133     1535                     l3567:
  8134     1535  1107               	bcf	7,2	;volatile
  8135     1536                     l43:
  8136     1536  0008               	return
  8137     1537                     __end_of_init_config:
  8138                           
  8139                           	psect	text22
  8140     14BD                     __ptext22:	
  8141 ;; *************** function _init_timer2 *****************
  8142 ;; Defined at:
  8143 ;;		line 4 in file "timers.c"
  8144 ;; Parameters:    Size  Location     Type
  8145 ;;		None
  8146 ;; Auto vars:     Size  Location     Type
  8147 ;;		None
  8148 ;; Return value:  Size  Location     Type
  8149 ;;                  1    wreg      void 
  8150 ;; Registers used:
  8151 ;;		None
  8152 ;; Tracked objects:
  8153 ;;		On entry : 0/0
  8154 ;;		On exit  : 0/0
  8155 ;;		Unchanged: 0/0
  8156 ;; Data sizes:     COMMON   BANK0   BANK1   BANK3   BANK2
  8157 ;;      Params:         0       0       0       0       0
  8158 ;;      Locals:         0       0       0       0       0
  8159 ;;      Temps:          0       0       0       0       0
  8160 ;;      Totals:         0       0       0       0       0
  8161 ;;Total ram usage:        0 bytes
  8162 ;; Hardware stack levels used: 1
  8163 ;; Hardware stack levels required when called: 1
  8164 ;; This function calls:
  8165 ;;		Nothing
  8166 ;; This function is called by:
  8167 ;;		_init_config
  8168 ;; This function uses a non-reentrant model
  8169 ;;
  8170                           
  8171     14BD                     _init_timer2:	
  8172                           ;psect for function _init_timer2
  8173                           
  8174     14BD                     l3185:	
  8175                           ;incstack = 0
  8176                           ; Regs used in _init_timer2: []
  8177                           
  8178                           
  8179                           ;timers.c: 16:     PR2 = 250;
  8180     14BD  30FA               	movlw	250
  8181     14BE  1683               	bsf	3,5	;RP0=1, select bank1
  8182     14BF  1303               	bcf	3,6	;RP1=0, select bank1
  8183     14C0  0092               	movwf	18	;volatile
  8184                           
  8185                           ;timers.c: 19:     TMR2IE = 1;
  8186     14C1  148C               	bsf	12,1	;volatile
  8187                           
  8188                           ;timers.c: 22:     TMR2ON = 0;;
  8189     14C2  1283               	bcf	3,5	;RP0=0, select bank0
  8190     14C3  1303               	bcf	3,6	;RP1=0, select bank0
  8191     14C4  1112               	bcf	18,2	;volatile
  8192     14C5                     l140:
  8193     14C5  0008               	return
  8194     14C6                     __end_of_init_timer2:
  8195                           
  8196                           	psect	text23
  8197     14B7                     __ptext23:	
  8198 ;; *************** function _init_digital_keypad *****************
  8199 ;; Defined at:
  8200 ;;		line 4 in file "digital_keypad.c"
  8201 ;; Parameters:    Size  Location     Type
  8202 ;;		None
  8203 ;; Auto vars:     Size  Location     Type
  8204 ;;		None
  8205 ;; Return value:  Size  Location     Type
  8206 ;;                  1    wreg      void 
  8207 ;; Registers used:
  8208 ;;		wreg, status,2
  8209 ;; Tracked objects:
  8210 ;;		On entry : 0/0
  8211 ;;		On exit  : 0/0
  8212 ;;		Unchanged: 0/0
  8213 ;; Data sizes:     COMMON   BANK0   BANK1   BANK3   BANK2
  8214 ;;      Params:         0       0       0       0       0
  8215 ;;      Locals:         0       0       0       0       0
  8216 ;;      Temps:          0       0       0       0       0
  8217 ;;      Totals:         0       0       0       0       0
  8218 ;;Total ram usage:        0 bytes
  8219 ;; Hardware stack levels used: 1
  8220 ;; Hardware stack levels required when called: 1
  8221 ;; This function calls:
  8222 ;;		Nothing
  8223 ;; This function is called by:
  8224 ;;		_init_config
  8225 ;; This function uses a non-reentrant model
  8226 ;;
  8227                           
  8228     14B7                     _init_digital_keypad:	
  8229                           ;psect for function _init_digital_keypad
  8230                           
  8231     14B7                     l3183:	
  8232                           ;incstack = 0
  8233                           ; Regs used in _init_digital_keypad: [wreg+status,2]
  8234                           
  8235                           
  8236                           ;digital_keypad.c: 6:     TRISB = TRISB | 0x3F;
  8237     14B7  1683               	bsf	3,5	;RP0=1, select bank1
  8238     14B8  1303               	bcf	3,6	;RP1=0, select bank1
  8239     14B9  0806               	movf	6,w	;volatile
  8240     14BA  383F               	iorlw	63
  8241     14BB  0086               	movwf	6	;volatile
  8242     14BC                     l113:
  8243     14BC  0008               	return
  8244     14BD                     __end_of_init_digital_keypad:
  8245                           
  8246                           	psect	text24
  8247     14C6                     __ptext24:	
  8248 ;; *************** function _init_clcd *****************
  8249 ;; Defined at:
  8250 ;;		line 37 in file "clcd.c"
  8251 ;; Parameters:    Size  Location     Type
  8252 ;;		None
  8253 ;; Auto vars:     Size  Location     Type
  8254 ;;		None
  8255 ;; Return value:  Size  Location     Type
  8256 ;;                  1    wreg      void 
  8257 ;; Registers used:
  8258 ;;		wreg, status,2, status,0, pclath, cstack
  8259 ;; Tracked objects:
  8260 ;;		On entry : 0/0
  8261 ;;		On exit  : 0/0
  8262 ;;		Unchanged: 0/0
  8263 ;; Data sizes:     COMMON   BANK0   BANK1   BANK3   BANK2
  8264 ;;      Params:         0       0       0       0       0
  8265 ;;      Locals:         0       0       0       0       0
  8266 ;;      Temps:          0       0       0       0       0
  8267 ;;      Totals:         0       0       0       0       0
  8268 ;;Total ram usage:        0 bytes
  8269 ;; Hardware stack levels used: 1
  8270 ;; Hardware stack levels required when called: 3
  8271 ;; This function calls:
  8272 ;;		_init_display_controller
  8273 ;; This function is called by:
  8274 ;;		_init_config
  8275 ;; This function uses a non-reentrant model
  8276 ;;
  8277                           
  8278     14C6                     _init_clcd:	
  8279                           ;psect for function _init_clcd
  8280                           
  8281     14C6                     l3175:	
  8282                           ;incstack = 0
  8283                           ; Regs used in _init_clcd: [wreg+status,2+status,0+pclath+cstack]
  8284                           
  8285                           
  8286                           ;clcd.c: 40:     TRISD = 0x00;
  8287     14C6  1683               	bsf	3,5	;RP0=1, select bank1
  8288     14C7  1303               	bcf	3,6	;RP1=0, select bank1
  8289     14C8  0188               	clrf	8	;volatile
  8290     14C9                     l3177:
  8291                           
  8292                           ;clcd.c: 43:     TRISE2 = 0;
  8293     14C9  1109               	bcf	9,2	;volatile
  8294     14CA                     l3179:
  8295                           
  8296                           ;clcd.c: 44:     TRISE1 = 0;
  8297     14CA  1089               	bcf	9,1	;volatile
  8298     14CB                     l3181:
  8299                           
  8300                           ;clcd.c: 46:     init_display_controller();
  8301     14CB  160A  118A  2677  160A  118A  	fcall	_init_display_controller
  8302     14D0                     l97:
  8303     14D0  0008               	return
  8304     14D1                     __end_of_init_clcd:
  8305                           
  8306                           	psect	text25
  8307     1677                     __ptext25:	
  8308 ;; *************** function _init_display_controller *****************
  8309 ;; Defined at:
  8310 ;;		line 16 in file "clcd.c"
  8311 ;; Parameters:    Size  Location     Type
  8312 ;;		None
  8313 ;; Auto vars:     Size  Location     Type
  8314 ;;		None
  8315 ;; Return value:  Size  Location     Type
  8316 ;;                  1    wreg      void 
  8317 ;; Registers used:
  8318 ;;		wreg, status,2, status,0, pclath, cstack
  8319 ;; Tracked objects:
  8320 ;;		On entry : 0/0
  8321 ;;		On exit  : 0/0
  8322 ;;		Unchanged: 0/0
  8323 ;; Data sizes:     COMMON   BANK0   BANK1   BANK3   BANK2
  8324 ;;      Params:         0       0       0       0       0
  8325 ;;      Locals:         0       0       0       0       0
  8326 ;;      Temps:          2       0       0       0       0
  8327 ;;      Totals:         2       0       0       0       0
  8328 ;;Total ram usage:        2 bytes
  8329 ;; Hardware stack levels used: 1
  8330 ;; Hardware stack levels required when called: 2
  8331 ;; This function calls:
  8332 ;;		_clcd_write
  8333 ;; This function is called by:
  8334 ;;		_init_clcd
  8335 ;; This function uses a non-reentrant model
  8336 ;;
  8337                           
  8338     1677                     _init_display_controller:	
  8339                           ;psect for function _init_display_controller
  8340                           
  8341     1677                     l2943:	
  8342                           ;incstack = 0
  8343                           ; Regs used in _init_display_controller: [wreg+status,2+status,0+pclath+cstack]
  8344                           
  8345                           
  8346                           ;clcd.c: 19:     _delay((unsigned long)((30)*(20000000/4000.0)));
  8347     1677  30C3               	movlw	195
  8348     1678  00F7               	movwf	??_init_display_controller+1
  8349     1679  30CD               	movlw	205
  8350     167A  00F6               	movwf	??_init_display_controller
  8351     167B                     u5667:
  8352     167B  0BF6               	decfsz	??_init_display_controller,f
  8353     167C  2E7B               	goto	u5667
  8354     167D  0BF7               	decfsz	??_init_display_controller+1,f
  8355     167E  2E7B               	goto	u5667
  8356     167F                     l2945:
  8357                           
  8358                           ;clcd.c: 22:     clcd_write(0x33, 0);
  8359     167F  01F2               	clrf	clcd_write@mode
  8360     1680  3033               	movlw	51
  8361     1681  120A  158A  2001  160A  118A  	fcall	_clcd_write
  8362     1686                     l2947:
  8363                           
  8364                           ;clcd.c: 23:     _delay((unsigned long)((4100)*(20000000/4000000.0)));
  8365     1686  301B               	movlw	27
  8366     1687  00F7               	movwf	??_init_display_controller+1
  8367     1688  309E               	movlw	158
  8368     1689  00F6               	movwf	??_init_display_controller
  8369     168A                     u5677:
  8370     168A  0BF6               	decfsz	??_init_display_controller,f
  8371     168B  2E8A               	goto	u5677
  8372     168C  0BF7               	decfsz	??_init_display_controller+1,f
  8373     168D  2E8A               	goto	u5677
  8374     168E  0000               	nop
  8375                           
  8376                           ;clcd.c: 24:     clcd_write(0x33, 0);
  8377     168F  01F2               	clrf	clcd_write@mode
  8378     1690  3033               	movlw	51
  8379     1691  120A  158A  2001  160A  118A  	fcall	_clcd_write
  8380     1696                     l2949:
  8381                           
  8382                           ;clcd.c: 25:     _delay((unsigned long)((100)*(20000000/4000000.0)));
  8383     1696  30A6               	movlw	166
  8384     1697  00F6               	movwf	??_init_display_controller
  8385     1698                     u5687:
  8386     1698  0BF6               	decfsz	??_init_display_controller,f
  8387     1699  2E98               	goto	u5687
  8388     169A  0000               	nop
  8389     169B                     l2951:
  8390                           
  8391                           ;clcd.c: 26:     clcd_write(0x33, 0);
  8392     169B  01F2               	clrf	clcd_write@mode
  8393     169C  3033               	movlw	51
  8394     169D  120A  158A  2001  160A  118A  	fcall	_clcd_write
  8395     16A2                     l2953:
  8396                           
  8397                           ;clcd.c: 27:     _delay((unsigned long)((1)*(20000000/4000000.0)));
  8398     16A2  2EA3               	nop2	;2 cycle nop
  8399     16A3  2EA4               	nop2	;2 cycle nop
  8400     16A4  0000               	nop
  8401     16A5                     l2955:
  8402                           
  8403                           ;clcd.c: 29:     clcd_write(0x3C, 0);
  8404     16A5  01F2               	clrf	clcd_write@mode
  8405     16A6  303C               	movlw	60
  8406     16A7  120A  158A  2001  160A  118A  	fcall	_clcd_write
  8407     16AC                     l2957:
  8408                           
  8409                           ;clcd.c: 30:     _delay((unsigned long)((100)*(20000000/4000000.0)));
  8410     16AC  30A6               	movlw	166
  8411     16AD  00F6               	movwf	??_init_display_controller
  8412     16AE                     u5697:
  8413     16AE  0BF6               	decfsz	??_init_display_controller,f
  8414     16AF  2EAE               	goto	u5697
  8415     16B0  0000               	nop
  8416                           
  8417                           ;clcd.c: 31:     clcd_write(0x01, 0);
  8418     16B1  01F2               	clrf	clcd_write@mode
  8419     16B2  3001               	movlw	1
  8420     16B3  120A  158A  2001  160A  118A  	fcall	_clcd_write
  8421     16B8                     l2959:
  8422                           
  8423                           ;clcd.c: 32:     _delay((unsigned long)((500)*(20000000/4000000.0)));
  8424     16B8  3004               	movlw	4
  8425     16B9  00F7               	movwf	??_init_display_controller+1
  8426     16BA  303D               	movlw	61
  8427     16BB  00F6               	movwf	??_init_display_controller
  8428     16BC                     u5707:
  8429     16BC  0BF6               	decfsz	??_init_display_controller,f
  8430     16BD  2EBC               	goto	u5707
  8431     16BE  0BF7               	decfsz	??_init_display_controller+1,f
  8432     16BF  2EBC               	goto	u5707
  8433     16C0  2EC1               	nop2
  8434     16C1                     l2961:
  8435                           
  8436                           ;clcd.c: 33:     clcd_write(0x0C, 0);
  8437     16C1  01F2               	clrf	clcd_write@mode
  8438     16C2  300C               	movlw	12
  8439     16C3  120A  158A  2001  160A  118A  	fcall	_clcd_write
  8440                           
  8441                           ;clcd.c: 34:     _delay((unsigned long)((100)*(20000000/4000000.0)));
  8442     16C8  30A6               	movlw	166
  8443     16C9  00F6               	movwf	??_init_display_controller
  8444     16CA                     u5717:
  8445     16CA  0BF6               	decfsz	??_init_display_controller,f
  8446     16CB  2ECA               	goto	u5717
  8447     16CC  0000               	nop
  8448     16CD                     l94:
  8449     16CD  0008               	return
  8450     16CE                     __end_of_init_display_controller:
  8451                           
  8452                           	psect	text26
  8453     0801                     __ptext26:	
  8454 ;; *************** function _clcd_write *****************
  8455 ;; Defined at:
  8456 ;;		line 4 in file "clcd.c"
  8457 ;; Parameters:    Size  Location     Type
  8458 ;;  byte            1    wreg     unsigned char 
  8459 ;;  mode            1    2[COMMON] unsigned char 
  8460 ;; Auto vars:     Size  Location     Type
  8461 ;;  byte            1    5[COMMON] unsigned char 
  8462 ;; Return value:  Size  Location     Type
  8463 ;;                  1    wreg      void 
  8464 ;; Registers used:
  8465 ;;		wreg
  8466 ;; Tracked objects:
  8467 ;;		On entry : 0/0
  8468 ;;		On exit  : 0/0
  8469 ;;		Unchanged: 0/0
  8470 ;; Data sizes:     COMMON   BANK0   BANK1   BANK3   BANK2
  8471 ;;      Params:         1       0       0       0       0
  8472 ;;      Locals:         1       0       0       0       0
  8473 ;;      Temps:          2       0       0       0       0
  8474 ;;      Totals:         4       0       0       0       0
  8475 ;;Total ram usage:        4 bytes
  8476 ;; Hardware stack levels used: 1
  8477 ;; Hardware stack levels required when called: 1
  8478 ;; This function calls:
  8479 ;;		Nothing
  8480 ;; This function is called by:
  8481 ;;		_init_display_controller
  8482 ;;		_clcd_putch
  8483 ;;		_clcd_print
  8484 ;;		_clear_screen
  8485 ;; This function uses a non-reentrant model
  8486 ;;
  8487                           
  8488     0801                     _clcd_write:	
  8489                           ;psect for function _clcd_write
  8490                           
  8491                           
  8492                           ;incstack = 0
  8493                           ; Regs used in _clcd_write: [wreg]
  8494                           ;clcd_write@byte stored from wreg
  8495     0801  00F5               	movwf	clcd_write@byte
  8496     0802                     l2923:
  8497                           
  8498                           ;clcd.c: 4: void clcd_write(unsigned char byte, unsigned char mode);clcd.c: 5: {;clcd.c:
      +                           6:     RE2 = mode;
  8499     0802  1872               	btfsc	clcd_write@mode,0
  8500     0803  2805               	goto	u3461
  8501     0804  2809               	goto	u3460
  8502     0805                     u3461:
  8503     0805  1283               	bcf	3,5	;RP0=0, select bank0
  8504     0806  1303               	bcf	3,6	;RP1=0, select bank0
  8505     0807  1509               	bsf	9,2	;volatile
  8506     0808  280C               	goto	u3474
  8507     0809                     u3460:
  8508     0809  1283               	bcf	3,5	;RP0=0, select bank0
  8509     080A  1303               	bcf	3,6	;RP1=0, select bank0
  8510     080B  1109               	bcf	9,2	;volatile
  8511     080C                     u3474:
  8512     080C                     l2925:
  8513                           
  8514                           ;clcd.c: 7:     PORTD = byte;
  8515     080C  0875               	movf	clcd_write@byte,w
  8516     080D  0088               	movwf	8	;volatile
  8517     080E                     l2927:
  8518                           
  8519                           ;clcd.c: 9:     RE1 = 1;
  8520     080E  1489               	bsf	9,1	;volatile
  8521                           
  8522                           ;clcd.c: 10:     _delay((unsigned long)((100)*(20000000/4000000.0)));
  8523     080F  30A6               	movlw	166
  8524     0810  00F3               	movwf	??_clcd_write
  8525     0811                     u5727:
  8526     0811  0BF3               	decfsz	??_clcd_write,f
  8527     0812  2811               	goto	u5727
  8528     0813  0000               	nop
  8529     0814                     l2929:
  8530                           
  8531                           ;clcd.c: 11:     RE1 = 0;
  8532     0814  1283               	bcf	3,5	;RP0=0, select bank0
  8533     0815  1303               	bcf	3,6	;RP1=0, select bank0
  8534     0816  1089               	bcf	9,1	;volatile
  8535                           
  8536                           ;clcd.c: 13:     _delay((unsigned long)((4100)*(20000000/4000000.0)));
  8537     0817  301B               	movlw	27
  8538     0818  00F4               	movwf	??_clcd_write+1
  8539     0819  309E               	movlw	158
  8540     081A  00F3               	movwf	??_clcd_write
  8541     081B                     u5737:
  8542     081B  0BF3               	decfsz	??_clcd_write,f
  8543     081C  281B               	goto	u5737
  8544     081D  0BF4               	decfsz	??_clcd_write+1,f
  8545     081E  281B               	goto	u5737
  8546     081F  0000               	nop
  8547     0820                     l91:
  8548     0820  0008               	return
  8549     0821                     __end_of_clcd_write:
  8550                           
  8551                           	psect	text27
  8552     15D9                     __ptext27:	
  8553 ;; *************** function _isr *****************
  8554 ;; Defined at:
  8555 ;;		line 6 in file "isr.c"
  8556 ;; Parameters:    Size  Location     Type
  8557 ;;		None
  8558 ;; Auto vars:     Size  Location     Type
  8559 ;;		None
  8560 ;; Return value:  Size  Location     Type
  8561 ;;                  1    wreg      void 
  8562 ;; Registers used:
  8563 ;;		wreg, status,2, status,0
  8564 ;; Tracked objects:
  8565 ;;		On entry : 0/0
  8566 ;;		On exit  : 0/0
  8567 ;;		Unchanged: 0/0
  8568 ;; Data sizes:     COMMON   BANK0   BANK1   BANK3   BANK2
  8569 ;;      Params:         0       0       0       0       0
  8570 ;;      Locals:         0       0       0       0       0
  8571 ;;      Temps:          2       0       0       0       0
  8572 ;;      Totals:         2       0       0       0       0
  8573 ;;Total ram usage:        2 bytes
  8574 ;; Hardware stack levels used: 1
  8575 ;; This function calls:
  8576 ;;		Nothing
  8577 ;; This function is called by:
  8578 ;;		Interrupt level 1
  8579 ;; This function uses a non-reentrant model
  8580 ;;
  8581                           
  8582     15D9                     _isr:	
  8583                           ;psect for function _isr
  8584                           
  8585     15D9                     i1l2897:
  8586                           
  8587                           ;isr.c: 7:     static unsigned long int count = 0;;isr.c: 8:     if (TMR2IF == 1) {
  8588     15D9  1283               	bcf	3,5	;RP0=0, select bank0
  8589     15DA  1303               	bcf	3,6	;RP1=0, select bank0
  8590     15DB  1C8C               	btfss	12,1	;volatile
  8591     15DC  2DDE               	goto	u340_21
  8592     15DD  2DDF               	goto	u340_20
  8593     15DE                     u340_21:
  8594     15DE  2E1F               	goto	i1l160
  8595     15DF                     u340_20:
  8596     15DF                     i1l2899:
  8597                           
  8598                           ;isr.c: 9:         if (++count == 20000)
  8599     15DF  3001               	movlw	1
  8600     15E0  1683               	bsf	3,5	;RP0=1, select bank1
  8601     15E1  1303               	bcf	3,6	;RP1=0, select bank1
  8602     15E2  07C2               	addwf	isr@count^(0+128),f
  8603     15E3  3000               	movlw	0
  8604     15E4  1803               	skipnc
  8605     15E5  3001               	movlw	1
  8606     15E6  07C3               	addwf	(isr@count+1)^(0+128),f
  8607     15E7  3000               	movlw	0
  8608     15E8  1803               	skipnc
  8609     15E9  3001               	movlw	1
  8610     15EA  07C4               	addwf	(isr@count+2)^(0+128),f
  8611     15EB  3000               	movlw	0
  8612     15EC  1803               	skipnc
  8613     15ED  3001               	movlw	1
  8614     15EE  07C5               	addwf	(isr@count+3)^(0+128),f
  8615     15EF  3020               	movlw	32
  8616     15F0  0642               	xorwf	isr@count^(0+128),w
  8617     15F1  304E               	movlw	78
  8618     15F2  1903               	skipnz
  8619     15F3  0643               	xorwf	(isr@count+1)^(0+128),w
  8620     15F4  0444               	iorwf	(isr@count+2)^(0+128),w
  8621     15F5  0445               	iorwf	(isr@count+3)^(0+128),w
  8622     15F6  1D03               	btfss	3,2
  8623     15F7  2DF9               	goto	u341_21
  8624     15F8  2DFA               	goto	u341_20
  8625     15F9                     u341_21:
  8626     15F9  2E1C               	goto	i1l2915
  8627     15FA                     u341_20:
  8628     15FA                     i1l2901:
  8629                           
  8630                           ;isr.c: 10:         {;isr.c: 11:             if (sec != 0) sec--;
  8631     15FA  1283               	bcf	3,5	;RP0=0, select bank0
  8632     15FB  1303               	bcf	3,6	;RP1=0, select bank0
  8633     15FC  086C               	movf	_sec,w
  8634     15FD  1903               	btfsc	3,2
  8635     15FE  2E00               	goto	u342_21
  8636     15FF  2E01               	goto	u342_20
  8637     1600                     u342_21:
  8638     1600  2E04               	goto	i1l2905
  8639     1601                     u342_20:
  8640     1601                     i1l2903:
  8641     1601  3001               	movlw	1
  8642     1602  02EC               	subwf	_sec,f
  8643     1603  2E12               	goto	i1l2913
  8644     1604                     i1l2905:
  8645     1604  086C               	movf	_sec,w
  8646     1605  1D03               	btfss	3,2
  8647     1606  2E08               	goto	u343_21
  8648     1607  2E09               	goto	u343_20
  8649     1608                     u343_21:
  8650     1608  2E12               	goto	i1l2913
  8651     1609                     u343_20:
  8652     1609                     i1l2907:
  8653     1609  086B               	movf	_min,w
  8654     160A  1903               	btfsc	3,2
  8655     160B  2E0D               	goto	u344_21
  8656     160C  2E0E               	goto	u344_20
  8657     160D                     u344_21:
  8658     160D  2E12               	goto	i1l2913
  8659     160E                     u344_20:
  8660     160E                     i1l2909:
  8661                           
  8662                           ;isr.c: 13:                 min--;
  8663     160E  3001               	movlw	1
  8664     160F  02EB               	subwf	_min,f
  8665     1610                     i1l2911:
  8666                           
  8667                           ;isr.c: 14:                 sec = 60;
  8668     1610  303C               	movlw	60
  8669     1611  00EC               	movwf	_sec
  8670     1612                     i1l2913:
  8671                           
  8672                           ;isr.c: 16:             count = 0;
  8673     1612  3000               	movlw	0
  8674     1613  1683               	bsf	3,5	;RP0=1, select bank1
  8675     1614  1303               	bcf	3,6	;RP1=0, select bank1
  8676     1615  00C5               	movwf	(isr@count+3)^(0+128)
  8677     1616  3000               	movlw	0
  8678     1617  00C4               	movwf	(isr@count+2)^(0+128)
  8679     1618  3000               	movlw	0
  8680     1619  00C3               	movwf	(isr@count+1)^(0+128)
  8681     161A  3000               	movlw	0
  8682     161B  00C2               	movwf	isr@count^(0+128)
  8683     161C                     i1l2915:
  8684                           
  8685                           ;isr.c: 18:         TMR2IF = 0;
  8686     161C  1283               	bcf	3,5	;RP0=0, select bank0
  8687     161D  1303               	bcf	3,6	;RP1=0, select bank0
  8688     161E  108C               	bcf	12,1	;volatile
  8689     161F                     i1l160:
  8690     161F  0871               	movf	??_isr+1,w
  8691     1620  008A               	movwf	10
  8692     1621  0E70               	swapf	??_isr,w
  8693     1622  0083               	movwf	3
  8694     1623  0EFE               	swapf	btemp,f
  8695     1624  0E7E               	swapf	btemp,w
  8696     1625  0009               	retfie
  8697     1626                     __end_of_isr:
  8698     0002                     ___latbits      equ	2
  8699     007E                     btemp           set	126	;btemp
  8700     007E                     wtemp0          set	126
  8701                           
  8702                           	psect	intentry
  8703     0004                     __pintentry:	
  8704                           ;incstack = 0
  8705                           ; Regs used in _isr: [wreg+status,2+status,0]
  8706                           
  8707     0004                     interrupt_function:
  8708     007E                     saved_w         set	btemp
  8709     0004  00FE               	movwf	btemp
  8710     0005  0E03               	swapf	3,w
  8711     0006  00F0               	movwf	??_isr
  8712     0007  080A               	movf	10,w
  8713     0008  00F1               	movwf	??_isr+1
  8714     0009  160A  118A  2DD9   	ljmp	_isr
  8715                           
  8716                           	psect	config
  8717                           
  8718                           ;Config register CONFIG @ 0x2007
  8719                           ;	Oscillator Selection bits
  8720                           ;	FOSC = 0x3, unprogrammed default
  8721                           ;	Watchdog Timer Enable bit
  8722                           ;	WDTE = OFF, WDT disabled
  8723                           ;	Power-up Timer Enable bit
  8724                           ;	PWRTE = 0x1, unprogrammed default
  8725                           ;	Brown-out Reset Enable bit
  8726                           ;	BOREN = 0x1, unprogrammed default
  8727                           ;	Low-Voltage (Single-Supply) In-Circuit Serial Programming Enable bit
  8728                           ;	LVP = 0x1, unprogrammed default
  8729                           ;	Data EEPROM Memory Code Protection bit
  8730                           ;	CPD = 0x1, unprogrammed default
  8731                           ;	Flash Program Memory Write Enable bits
  8732                           ;	WRT = 0x3, unprogrammed default
  8733                           ;	In-Circuit Debugger Mode bit
  8734                           ;	DEBUG = 0x1, unprogrammed default
  8735                           ;	Flash Program Memory Code Protection bit
  8736                           ;	CP = 0x1, unprogrammed default
  8737     2007                     	org	8199
  8738     2007  3FFB               	dw	16379

Data Sizes:
    Strings     368
    Constant    0
    Data        38
    BSS         16
    Persistent  0
    Stack       0

Auto Spaces:
    Space          Size  Autos    Used
    COMMON           14      9      12
    BANK0            80     69      79
    BANK1            80      5      46
    BANK3            96      0       0
    BANK2            96      0       0

Pointer List with Targets:

    clcd_print@str	PTR const unsigned char  size(2) Largest target is 17
		 -> STR_1(CODE[14]), STR_10(CODE[7]), STR_11(CODE[11]), STR_12(CODE[11]), 
		 -> STR_13(CODE[8]), STR_14(CODE[11]), STR_15(CODE[10]), STR_16(CODE[9]), 
		 -> STR_17(CODE[10]), STR_18(CODE[11]), STR_19(CODE[5]), STR_2(CODE[9]), 
		 -> STR_20(CODE[4]), STR_21(CODE[7]), STR_22(CODE[5]), STR_23(CODE[4]), 
		 -> STR_24(CODE[12]), STR_25(CODE[16]), STR_26(CODE[17]), STR_27(CODE[13]), 
		 -> STR_28(CODE[6]), STR_29(CODE[5]), STR_3(CODE[16]), STR_30(CODE[9]), 
		 -> STR_31(CODE[5]), STR_32(CODE[12]), STR_33(CODE[11]), STR_34(CODE[5]), 
		 -> STR_35(CODE[6]), STR_36(CODE[5]), STR_37(CODE[6]), STR_38(CODE[5]), 
		 -> STR_39(CODE[5]), STR_4(CODE[13]), STR_40(CODE[5]), STR_41(CODE[17]), 
		 -> STR_42(CODE[15]), STR_43(CODE[13]), STR_44(CODE[14]), STR_45(CODE[5]), 
		 -> STR_46(CODE[9]), STR_47(CODE[5]), STR_48(CODE[12]), STR_49(CODE[11]), 
		 -> STR_5(CODE[11]), STR_6(CODE[10]), STR_7(CODE[6]), STR_8(CODE[6]), 
		 -> STR_9(CODE[10]), 

    washing_program	PTR unsigned char [12] size(2) Largest target is 11
		 -> STR_10(CODE[7]), STR_11(CODE[11]), STR_12(CODE[11]), STR_13(CODE[8]), 
		 -> STR_14(CODE[11]), STR_15(CODE[10]), STR_16(CODE[9]), STR_17(CODE[10]), 
		 -> STR_18(CODE[11]), STR_7(CODE[6]), STR_8(CODE[6]), STR_9(CODE[10]), 

    water_level	PTR unsigned char [5] size(2) Largest target is 7
		 -> STR_19(CODE[5]), STR_20(CODE[4]), STR_21(CODE[7]), STR_22(CODE[5]), 
		 -> STR_23(CODE[4]), 


Critical Paths under _main in COMMON

    _water_level_screen->_clcd_putch
    _washing_program_display->_clcd_putch
    _run_program->_clcd_putch
    _door_status_check->_clear_screen
    _clear_screen->_clcd_write
    ___fltol->___xxtofl
    ___flsub->___fladd
    ___flsub->___xxtofl
    ___flmul->__Umul8_16
    ___flmul->___xxtofl
    ___flge->___xxtofl
    _power_on_screen->_clcd_putch
    _clcd_putch->___awmod
    _clcd_print->___awmod
    _init_clcd->_init_display_controller
    _init_display_controller->_clcd_write

Critical Paths under _isr in COMMON

    None.

Critical Paths under _main in BANK0

    _main->_run_program
    _water_level_screen->_clcd_putch
    _washing_program_display->_clcd_putch
    _run_program->___flge
    _door_status_check->_clcd_print
    ___fltol->___flmul
    ___flsub->___flmul
    ___flmul->___xxtofl
    ___flge->___flsub
    _power_on_screen->_clcd_putch
    _clcd_putch->___awdiv

Critical Paths under _isr in BANK0

    None.

Critical Paths under _main in BANK1

    None.

Critical Paths under _isr in BANK1

    None.

Critical Paths under _main in BANK3

    None.

Critical Paths under _isr in BANK3

    None.

Critical Paths under _main in BANK2

    None.

Critical Paths under _isr in BANK2

    None.

Call Graph Tables:

 ---------------------------------------------------------------------------------
 (Depth) Function   	        Calls       Base Space   Used Autos Params    Refs
 ---------------------------------------------------------------------------------
 (0) _main                                                 5     5      0   13428
                                              0 BANK1      5     5      0
                         _clcd_print
                       _clear_screen
                        _init_config
                    _power_on_screen
                _read_digital_keypad
                        _run_program
                           _set_time
            _washing_program_display
                 _water_level_screen
 ---------------------------------------------------------------------------------
 (1) _water_level_screen                                   3     3      0    1307
                                              5 BANK0      3     3      0
                            ___awmod
                         _clcd_print
                         _clcd_putch
                       _clear_screen
 ---------------------------------------------------------------------------------
 (1) _washing_program_display                              3     3      0    1307
                                              5 BANK0      3     3      0
                            ___awmod
                         _clcd_print
                         _clcd_putch
                       _clear_screen
 ---------------------------------------------------------------------------------
 (1) _set_time                                             0     0      0       0
 ---------------------------------------------------------------------------------
 (1) _run_program                                         13    13      0    8598
                                             56 BANK0     13    13      0
                            ___awdiv
                            ___awmod
                             ___bmul
                             ___flge
                            ___flmul
                            ___flsub
                            ___fltol
                           ___xxtofl
                         _clcd_print
                         _clcd_putch
                       _clear_screen
                  _door_status_check
 ---------------------------------------------------------------------------------
 (2) _door_status_check                                    0     0      0     552
                         _clcd_print
                       _clear_screen
 ---------------------------------------------------------------------------------
 (2) _clear_screen                                         2     2      0     111
                                              6 COMMON     2     2      0
                         _clcd_write
 ---------------------------------------------------------------------------------
 (2) ___xxtofl                                            14    10      4     526
                                              2 COMMON     4     0      4
                                              0 BANK0     10    10      0
 ---------------------------------------------------------------------------------
 (2) ___fltol                                             10     6      4     346
                                              6 COMMON     2     2      0
                                             36 BANK0      8     4      4
                            ___flmul (ARG)
                           ___xxtofl (ARG)
 ---------------------------------------------------------------------------------
 (2) ___flsub                                              8     0      8    3025
                                             36 BANK0      8     0      8
                            ___fladd
                            ___flmul (ARG)
                           ___xxtofl (ARG)
 ---------------------------------------------------------------------------------
 (3) ___fladd                                             20    12      8    2954
                                              2 COMMON     4     4      0
                                              0 BANK0     16     8      8
 ---------------------------------------------------------------------------------
 (2) ___flmul                                             26    18      8    2452
                                             10 BANK0     26    18      8
                          __Umul8_16
                           ___xxtofl (ARG)
 ---------------------------------------------------------------------------------
 (3) __Umul8_16                                            9     7      2     232
                                              2 COMMON     4     2      2
                                              0 BANK0      5     5      0
 ---------------------------------------------------------------------------------
 (2) ___flge                                              12     4      8     272
                                             44 BANK0     12     4      8
                            ___flmul (ARG)
                            ___flsub (ARG)
                           ___xxtofl (ARG)
 ---------------------------------------------------------------------------------
 (2) ___bmul                                               3     2      1       6
                                              2 COMMON     3     2      1
 ---------------------------------------------------------------------------------
 (2) ___awmod                                              6     2      4     471
                                              2 COMMON     6     2      4
 ---------------------------------------------------------------------------------
 (2) ___awdiv                                              8     4      4      90
                                              2 COMMON     4     0      4
                                              0 BANK0      4     4      0
 ---------------------------------------------------------------------------------
 (1) _read_digital_keypad                                  2     2      0     239
                                              2 COMMON     2     2      0
 ---------------------------------------------------------------------------------
 (1) _power_on_screen                                      7     7      0     876
                                              5 BANK0      7     7      0
                         _clcd_print
                         _clcd_putch
 ---------------------------------------------------------------------------------
 (2) _clcd_putch                                           2     1      1     237
                                              8 COMMON     1     0      1
                                              4 BANK0      1     1      0
                            ___awdiv (ARG)
                            ___awmod (ARG)
                         _clcd_write
 ---------------------------------------------------------------------------------
 (2) _clcd_print                                           3     0      3     441
                                              0 BANK0      3     0      3
                            ___awmod (ARG)
                         _clcd_write
 ---------------------------------------------------------------------------------
 (1) _init_config                                          0     0      0     111
                          _init_clcd
                _init_digital_keypad
                        _init_timer2
 ---------------------------------------------------------------------------------
 (2) _init_timer2                                          0     0      0       0
 ---------------------------------------------------------------------------------
 (2) _init_digital_keypad                                  0     0      0       0
 ---------------------------------------------------------------------------------
 (2) _init_clcd                                            0     0      0     111
            _init_display_controller
 ---------------------------------------------------------------------------------
 (3) _init_display_controller                              2     2      0     111
                                              6 COMMON     2     2      0
                         _clcd_write
 ---------------------------------------------------------------------------------
 (3) _clcd_write                                           4     3      1     111
                                              2 COMMON     4     3      1
 ---------------------------------------------------------------------------------
 Estimated maximum stack depth 3
 ---------------------------------------------------------------------------------
 (Depth) Function   	        Calls       Base Space   Used Autos Params    Refs
 ---------------------------------------------------------------------------------
 (5) _isr                                                  2     2      0       0
                                              0 COMMON     2     2      0
 ---------------------------------------------------------------------------------
 Estimated maximum stack depth 5
 ---------------------------------------------------------------------------------

 Call Graph Graphs:

 _main (ROOT)
   _clcd_print
     ___awmod (ARG)
     _clcd_write (ARG)
   _clear_screen
     _clcd_write
   _init_config
     _init_clcd
       _init_display_controller
         _clcd_write
     _init_digital_keypad
     _init_timer2
   _power_on_screen
     _clcd_print
     _clcd_putch
       ___awdiv (ARG)
       ___awmod (ARG)
       _clcd_write (ARG)
   _read_digital_keypad
   _run_program
     ___awdiv
     ___awmod
     ___bmul
     ___flge
       ___flmul (ARG)
         __Umul8_16
         ___xxtofl (ARG)
       ___flsub (ARG)
         ___fladd
         ___flmul (ARG)
         ___xxtofl (ARG)
       ___xxtofl (ARG)
     ___flmul
     ___flsub
     ___fltol
       ___flmul (ARG)
       ___xxtofl (ARG)
     ___xxtofl
     _clcd_print
     _clcd_putch
     _clear_screen
     _door_status_check
       _clcd_print
       _clear_screen
   _set_time
   _washing_program_display
     ___awmod
     _clcd_print
     _clcd_putch
     _clear_screen
   _water_level_screen
     ___awmod
     _clcd_print
     _clcd_putch
     _clear_screen

 _isr (ROOT)

Address spaces:
Name               Size   Autos  Total    Usage
BANK3               96      0       0      0.0%
BITBANK3            96      0       0      0.0%
BANK2               96      0       0      0.0%
BITBANK2            96      0       0      0.0%
BANK1               80      5      46     57.5%
BITBANK1            80      0       0      0.0%
BANK0               80     69      79     98.8%
BITBANK0            80      0       0      0.0%
COMMON              14      9      12     85.7%
BITCOMMON           14      0       0      0.0%
DATA                 0      0     135      0.0%
STACK                0      0       0      0.0%


Microchip Technology PIC Macro Assembler V3.00 build 20241204225717 
Symbol Table                                                                                   Fri Jun 27 17:39:15 2025

                                  pc 0002                       ___bmul@product 0073  
                     clcd_print@addr 0022                                   l43 1536  
                                 l65 0C5C                                   l91 0820  
                                 l59 0C14                                   l94 16CD  
                                 l97 14D0                         ___awdiv@sign 0021  
                                 fsr 0004                  __Umul8_16@word_mpld 0022  
                                l100 151C                                  l113 14BC  
                                l106 15D8                                  l123 1676  
                                l140 14C5                                  l213 09D7  
                                l126 1675                                  l311 0D0F  
                                l304 0CF7                                  l224 0A81  
                                l321 0D2A                                  l219 0937  
                                l246 0416                                  l351 0856  
                                l344 0D6D                                  l328 0D3F  
                                l353 085C                                  l281 0CB3  
                                l257 0C69                                  l354 0898  
                                l347 0DA7                                  l621 0777  
                                l357 14E1                                  l287 0CC9  
                                l279 0CB3                                  l624 07E3  
                                l609 1724                                  l297 0CE2  
                                l289 0CC9                                  l644 17EA  
                                l469 14F4                                  l629 07FC  
                                l637 17FF                                  l750 0E5F  
                                l647 17FF                                  l840 0758  
                                l744 0E05                                  l739 0DD4  
                                l596 1789                                  l852 074E  
                                l748 0E86                                  l861 15A5  
                                l765 0F52                                  l757 0FFF  
                                l846 06CA                                  l790 157C  
                                l775 0F99                                  l769 0F76  
                                l786 0FF5                                  l778 0FD5  
                                l890 0AE5                                  l859 1593  
                                l787 0FFF                                  l884 0AA6  
                                l885 0AB7                                  l886 0B37  
                                l897 0B01                                  l898 0B0D  
                                _GIE 005F                                  _RB0 0030  
                                _RC1 0039                                  _RC2 003A  
                                _RE1 0049                                  _RE2 004A  
                                _PR2 0092                                  _min 006B  
                                _sec 006C                                  _isr 15D9  
                     clcd_putch@addr 0078                                  fsr0 0004  
                     clcd_putch@data 0024                                  indf 0000  
                       ___awmod@sign 0077                         ___flmul@aexp 0038  
                       ___flmul@bexp 003D                         ___flmul@sign 0037  
                       ___flmul@temp 0042                         ___flmul@prod 003E  
                        _run_program 004D                         ___fltol@exp1 0077  
                               l3001 0DF2                                 l3011 0E0F  
                               l3003 0DFA                                 l3101 0F5A  
                               l3021 0E19                                 l3013 0E11  
                               l3005 0DFB                                 l3111 0F75  
                               l3103 0F5F                                 l3031 0E23  
                               l3023 0E1B                                 l3015 0E13  
                               l3007 0DFD                                 l3113 0F7A  
                               l3121 0F87                                 l3041 0E2D  
                               l3033 0E25                                 l3025 0E1D  
                               l3017 0E15                                 l3009 0E0B  
                               l3201 085F                ??_read_digital_keypad 0072  
                               l4011 1725                                 l3211 14E3  
                               l3115 0F7E                                 l3107 0F68  
                               l3123 0F8B                                 l3051 0E6C  
                               l3035 0E27                                 l3027 0E1F  
                               l3019 0E17                                 l3043 0E2F  
                               l3203 0864                                 l4021 1737  
                               l4013 1728                                 l3301 171B  
                               l3221 14F3                                 l3213 14E4  
                               l3141 0FD3                                 l3133 0F9E  
                               l3125 0F8C                                 l3117 0F80  
                               l3109 0F71                                 l3053 0E6E  
                               l3061 0E80                                 l3045 0E30  
                               l3037 0E29                                 l3029 0E21  
                               l3205 0871                                 l4101 021B  
                               l4031 1749                                 l4023 173C  
                               l4015 172C                                 l3303 1720  
                               l3215 14E8                                 l3311 078B  
                               l3151 0FED                                 l3143 0FDA  
                               l3135 0FA3                                 l3127 0F90  
                               l3119 0F85                                 l3071 0EB3  
                               l3063 0E8A                                 l3055 0E74  
                               l3047 0E47                                 l3039 0E2B  
                               l3207 087E                                 l4111 0239  
                               l4103 021C                                 l4041 176D  
                               l4033 1750                                 l4025 173E  
                               l4017 1731                                 l3217 14EA  
                               l3321 07F9                                 l3313 0793  
                               l3161 1580                                 l3401 0458  
                               l3153 0FF1                                 l3145 0FDF  
                               l3137 0FB1                                 l3129 0F96  
                               l3081 0EC8                                 l3073 0EB7  
                               l3065 0E8F                                 l3057 0E75  
                               l3049 0E63                                 l3209 088B  
                               l4113 024E                                 l4121 0296  
                               l4105 0222                                 l4201 0BCD  
                               l4051 1785                                 l4043 176E  
                               l4035 1752                                 l4027 1740  
                               l4019 1733                                 l3219 14EC  
                               l3323 07FB                                 l3315 0797  
                               l3307 0759                                 l3171 15A1  
                               l3163 1582                                 l3411 0474  
                               l3403 0460                                 l3155 0FF3  
                               l3147 0FE7                                 l3139 0FB5  
                               l3091 0F2B                                 l3083 0EC9  
                               l3075 0EBB                                 l3059 0E7E  
                               l4131 0344                                 l4123 029C  
                               l4115 025C                                 l4107 0226  
                               l4203 0BD2                                 l4211 0BFF  
                               l3181 14CB                                 l4045 1775  
                               l4037 1756                                 l4029 1746  
                               l3317 07BB                                 l3309 076F  
                               l3165 1589                                 l3501 0744  
                               l3421 04B3                                 l3405 0462  
                               l3157 0FFA                                 l3149 0FEC  
                               l3093 0F2D                                 l3085 0ED2  
                               l3077 0EC2                                 l3069 0E9A  
                               l3341 17BC                                 l3333 179E  
                               l4141 0399                                 l4133 0350  
                               l4125 0322                                 l4117 027A  
                               l4109 0233                                 l4061 0062  
                               l4221 0C27                                 l4213 0C07  
                               l4205 0BDF                                 l3175 14C6  
                               l3183 14B7                                 l4039 1767  
                               l4047 177B                                 l3271 16CF  
                               l3319 07BF                                 l3167 158D  
                               l3503 0748                                 l3431 053A  
                               l3423 04CF                                 l3415 047D  
                               l3407 046A                                 l3159 0FFE  
                               l3095 0F30                                 l3079 0EC4  
                               l3087 0ED5                                 l3343 17C0  
                               l3351 17D8                                 l3335 17B1  
                               l3327 178A                                 l3511 0A85  
                               l3191 0827                                 l4151 03E0  
                               l4143 03B4                                 l4127 0330  
                               l4119 0288                                 l4135 035B  
                               l4071 00C7                                 l4063 006F  
                               l4055 0050                                 l4223 0C2F  
                               l4215 0C0F                                 l4207 0BEC  
                               l3177 14C9                                 l3185 14BD  
                               l3601 165D                                 l4049 1780  
                               l3281 16E3                                 l3273 16D3  
                               l3169 159C                                 l3505 0749  
                               l3441 05A7                                 l3433 0548  
                               l3425 04F9                                 l3417 048B  
                               l3409 046F                                 l3097 0F35  
                               l3089 0EED                                 l3361 17F4  
                               l3337 17B2                                 l3329 1795  
                               l3513 0A8A                                 l3193 082A  
                               l4161 040A                                 l4153 03E3  
                               l4145 03CF                                 l4137 0376  
                               l4129 033E                                 l4081 0117  
                               l4073 00CF                                 l4065 0084  
                               l4057 0055                                 l4225 0C36  
                               l4217 0C15                                 l4209 0BF9  
                               l4233 0C4C                                 l3179 14CA  
                               l3187 150B                                 l3611 166B  
                               l3603 165E                                 l3291 16F9  
                               l3283 16E9                                 l3275 16D8  
                               l3507 0750                                 l3451 064E  
                               l3443 05C4                                 l3435 0565  
                               l3427 0515                                 l3419 0498  
                               l3371 041B                                 l3099 0F44  
                               l3363 1559                                 l3339 17BA  
                               l3531 0ADC                                 l3523 0ABA  
                               l3515 0A8E                                 l3195 082F  
                               l4163 040D                                 l4155 03E4  
                               l4147 03D6                                 l4139 0391  
                               l4091 0150                                 l4083 011C  
                               l4075 00EA                                 l4067 0091  
                               l4059 005D                                 l4227 0C3C  
                               l4219 0C1E                                 l4171 0B3E  
                               l3613 166D                                 l3293 1703  
                               l3285 16EC                                 l3277 16DA  
                               l3269 16CE                                 l3461 069A  
                               l3453 0676                                 l3445 05EF  
                               l3437 0573                                 l3429 0531  
                               l3381 042B                                 l3373 041D  
                               l3365 155D                                 l3357 17DF  
                               l3349 17C8                                 l3541 0B0F  
                               l3533 0AEC                                 l3525 0AC5  
                               l3517 0A9E                                 l3197 083C  
                               l3189 0821                                 l4165 040F  
                               l4157 03EF                                 l4149 03DB  
                               l4093 015F                                 l4085 0129  
                               l4077 0105                                 l4069 00AC  
                               l3701 0CA2                                 l4229 0C43  
                               l4181 0B89                                 l4173 0B44  
                               l3631 0945                                 l3623 0938  
                               l3615 1673                                 l3607 1660  
                               l3295 1709                                 l3287 16F3  
                               l3279 16DE                                 l3471 06AF  
                               l3463 069B                                 l3455 067F  
                               l3447 05FD                                 l3439 0590  
                               l3391 0445                                 l3383 0430  
                               l3375 0421                                 l3359 17EF  
                               l3543 0B25                                 l3535 0AF7  
                               l3527 0ACC                                 l3519 0AAE  
                               l3199 0849                                 l4167 0411  
                               l4159 03FC                                 l4095 019C  
                               l4087 0136                                 l4079 0109  
                               l3711 0CDF                                 l4191 0BAF  
                               l4183 0B8E                                 l4175 0B52  
                               l3561 152E                                 l3553 151D  
                               l3641 0983                                 l3633 0953  
                               l3609 1666                                 l3297 1710  
                               l3289 16F5                                 l3481 06D4  
                               l3473 06B3                                 l3465 06A4  
                               l3457 068D                                 l3449 0628  
                               l3393 0449                                 l3385 0438  
                               l3377 0425                                 l3369 0417  
                               l3545 0B2A                                 l3537 0AFB  
                               l3529 0ACE                                 l4097 01DB  
                               l4089 0143                                 l3721 0CF7  
                               l3713 0CE0                                 l3705 0CB8  
                               l3801 08BF                                 l4193 0BB6  
                               l4185 0B97                                 l4177 0B79  
                               l4169 0B38                                 l2923 0802  
                               l3563 1531                                 l3555 1527  
                               l2931 15A6                                 l3651 09A1  
                               l3643 0990                                 l3635 095B  
                               l3619 1675                                 l3571 162B  
                               l3299 1716                                 l3491 0712  
                               l3483 06E2                                 l3475 06C7  
                               l3459 0696                                 l3467 06AA  
                               l3395 044D                                 l3387 043A  
                               l3379 0426                                 l3547 0B2E  
                               l3539 0B05                                 l4099 021A  
                               l3731 0D0D                                 l3723 0CF8  
                               l3715 0CE3                                 l3803 08CC  
                               l3811 09DB                                 l4195 0BBB  
                               l4187 0B9B                                 l4179 0B84  
                               l2925 080C                                 l3565 1532  
                               l3557 152C                                 l2933 15B0  
                               l3653 09AA                                 l3645 099D  
                               l3637 0964                                 l3629 093C  
                               l3581 1634                                 l3573 162D  
                               l3493 071D                                 l3485 06E6  
                               l3469 06AE                                 l3397 044E  
                               l3389 0442                                 l3549 0B2F  
                               l2941 14D8                                 l3741 0D27  
                               l3733 0D10                                 l3709 0CCE  
                               l3661 0C60                                 l3805 08D4  
                               l3821 0A09                                 l3813 09E1  
                               l4197 0BC3                                 l4189 0BA9  
                               l2927 080E                                 l2951 169B  
                               l2943 1677                                 l3567 1535  
                               l3559 152D                                 l2935 15C0  
                               l3655 09B8                                 l3639 0974  
                               l3583 163A                                 l3591 1644  
                               l3575 1632                                 l3495 072C  
                               l3487 06FF                                 l3479 06CF  
                               l3399 0453                                 l3751 0D3F  
                               l3743 0D28                                 l3735 0D12  
                               l3727 0CFB                                 l3719 0CE6  
                               l3663 0C61                                 l3807 08E9  
                               l3823 0A16                                 l3815 09E6  
                               l4199 0BCB                                 l2929 0814  
                               l2961 16C1                                 l2953 16A2  
                               l2945 167F                                 l2937 15C8  
                               l3657 09C0                                 l3593 164A  
                               l3585 163F                                 l3569 1627  
                               l3497 0736                                 l3489 0705  
                               l3761 0D55                                 l3753 0D40  
                               l3745 0D2B                                 l3729 0D0C  
                               l3681 0C82                                 l3673 0C6C  
                               l3665 0C62                                 l3809 0910  
                               l3817 09EA                                 l2955 16A5  
                               l2947 1686                                 l3659 09C9  
                               l3595 164F                                 l3587 1640  
                               l3499 0738                                 l2971 0DB6  
                               l2963 0DA8                                 l2939 14D1  
                               l3763 0D58                                 l3739 0D16  
                               l3691 0C9A                                 l3683 0C85  
                               l3675 0C7D                                 l3667 0C65  
                               l3819 09F0                                 l2957 16AC  
                               l2949 1696                                 l3597 1651  
                               l3589 1642                                 l2981 0DCA  
                               l2973 0DB7                                 l2965 0DAC  
                               l3781 0D6E                                 l3773 0D5C  
                               l3765 0D59                                 l3757 0D43  
                               l3749 0D2E                                 l3693 0C9B  
                               l3685 0C86                                 l3677 0C7E  
                               l3669 0C66                                 l2959 16B8  
                               l3599 1657                                 l2991 0DDF  
                               l2975 0DBC                                 l2983 0DCC  
                               l2967 0DAE                                 l3759 0D54  
                               l3695 0C9E                                 l3679 0C81  
                               l3791 08A7                                 l2993 0DE3  
                               l2985 0DD6                                 l2977 0DC1  
                               l2969 0DB2                                 l3697 0C9F  
                               l3689 0C89                                 l3785 0D7F  
                               l3793 08AB                                 l2995 0DE7  
                               l2987 0DD8                                 l2979 0DC9  
                               l3795 08B1                                 l3787 089C  
                               l2997 0DE8                                 l2989 0DDE  
                               l3797 08B9                                 l3789 08A2  
                               l2999 0DED                                 l3799 08BA  
                               ?_isr 0070                                 STR_1 104F  
                               STR_2 1118                                 STR_3 1022  
                               STR_4 1077                                 STR_5 10D3  
                               STR_6 10FC                                 STR_7 1143  
                               STR_8 1149                                 STR_9 10DE  
                               u4000 14E8                                 u4001 14E7  
                               u4010 14F3                                 u4011 14F2  
                               u5000 09C9                                 u4200 171B  
                               u4120 16D3                                 u5001 09C8  
                               u4201 171A                                 u4121 16D2  
                               u4130 16DE                                 u4210 076F  
                               u5010 08A2                                 u4131 16DD  
                               u4211 076E                                 u5011 08A1  
                               u4140 16E9                                 u4220 078B  
                               u3500 0DBC                                 u4300 17C0  
                               u5020 08B1                                 u4141 16E8  
                               u4221 078A                                 u3501 0DBB  
                               u4301 17BF                                 u5021 08B0  
                               u4230 0797                                 u3510 0DC1  
                               u4310 17C7                                 u5030 08B9  
                               u4231 0796                                 u3511 0DC0  
                               u4311 17C6                                 u5031 08B8  
                               u4160 16F9                                 u4400 0430  
                               u3600 0E53                                 u3520 0DDE  
                               u5040 09E1                                 u4161 16F8  
                               u4241 07A6                                 u4401 042F  
                               u3521 0DDD                                 u5041 09E0  
                               u4170 1703                                 u4250 07BF  
                               u4242 07A7                                 u4410 044D  
                               u3610 0E63                                 u3530 0DE7  
                               u4330 17D7                                 u5050 09F0  
                               u4171 1702                                 u4155 16ED  
                               u4251 07BE                                 u4243 07AC  
                               u4411 044C                                 u3611 0E62  
                               u3531 0DE6                                 u4331 17D6  
                               u5051 09EF                                 u3460 0809  
                               u5300 1746                                 u4244 07AD  
                               u4420 0453                                 u3700 0EC8  
                               u3620 0E74                                 u3540 0DED  
                               u4340 17DE                                 u3461 0805  
                               u5301 1745                                 u4261 07CE  
                               u4245 07B2                                 u4421 0452  
                               u3701 0EC7                                 u3621 0E73  
                               u3541 0DEC                                 u4341 17DD  
                               u4325 17C9                                 u4190 1716  
                               u4270 07F9                                 u4262 07CF  
                               u4246 07B3                                 u4430 0458  
                               u3550 0DF2                                 u4191 1715  
                               u4175 16FF                                 u4271 07F8  
                               u4263 07D4                                 u4511 0557  
                               u4431 0457                                 u3551 0DF1  
                               u3480 15D8                                 u5320 1756  
                               u4264 07D5                                 u4512 055E  
                               u4440 046F                                 u3800 0F7A  
                               u3720 0EED                                 u3640 0E86  
                               u3560 0E0B                                 u4360 17EF  
                               u4280 1795                                 u5400 0239  
                               u3481 15D7                                 u5321 1755  
                               u4185 170A                                 u4265 07DA  
                               u4601 0668                                 u4521 0582  
                               u4513 0565                                 u4505 0533  
                               u4441 046E                                 u3801 0F79  
                               u3721 0EEC                                 u3641 0E85  
                               u3561 0E0A                                 u4361 17EE  
                               u4281 1794                                 u5401 0238  
                               u3474 080C                                 u4266 07DB  
                               u4602 066F                                 u4522 0589  
                               u4450 0474                                 u3810 0F85  
                               u3650 0E8A                                 u3570 0E0F  
                               u3490 0DB6                                 u4370 17F4  
                               u4290 17AC                                 u5410 024E  
                               u5315 174A                                 u4275 07F5  
                               u4603 0676                                 u4523 0590  
                               u4451 0473                                 u3811 0F84  
                               u3731 0F04                                 u3723 0EE9  
                               u3715 0ECB                                 u3651 0E89  
                               u3635 0E77                                 u3571 0E0E  
                               u3491 0DB5                                 u4371 17F3  
                               u4355 17E1                                 u5411 024D  
                               _PEIE 005E                                 u5340 1767  
                               u4700 06E6                                 u4380 0425  
                               u3900 0FDA                                 u3820 0F8B  
                               u3740 0F18                                 u3732 0F05  
                               u3660 0E8F                                 u3580 0E47  
                               u5420 027A                                 u5500 0BA9  
                               u5341 1766                                 u4701 06E5  
                               u4541 05B6                                 u4461 04C1  
                               u4381 0424                                 u3901 0FD9  
                               u3821 0F8A                                 u3741 0F19  
                               u3733 0F0A                                 u3661 0E8E  
                               u3581 0E46                                 u5421 0279  
                               u5501 0BA8                                 u4710 06F5  
                               u4630 069A                                 u4542 05BD  
                               u4462 04C8                                 u4390 042B  
                               u3910 0FDF                                 u3830 0F90  
                               u3750 0F35                                 u3742 0F1E  
                               u3734 0F0B                                 u3590 0E52  
                               u5430 029C                                 u5510 0BAF  
                               u5335 1757                                 u4631 0699  
                               u4615 0678                                 u4551 05E1  
                               u4543 05C4                                 u4535 0592  
                               u4471 04DD                                 u4463 04CF  
                               u4391 042A                                 u3911 0FDE  
                               u3831 0F8F                                 u3751 0F34  
                               u3743 0F1F                                 u3735 0F10  
                               u3671 0EA5                                 u3591 0E50  
                               u4295 17A7                                 u5431 029B  
                               u5415 024A                                 u5511 0BAE  
                               u5360 177B                                 u5280 172C  
                               u4720 0712                                 u4552 05E8  
                               u4472 04E4                                 u3920 0FEC  
                               u3840 0F96                                 u3760 0F5A  
                               u3736 0F11                                 u3680 0EB7  
                               u3672 0EAC                                 u5440 0322  
                               u5520 0BB6                                 u5361 177A  
                               u5345 1763                                 u5281 172B  
                               u4721 0711                                 u4625 068F  
                               u4561 060C                                 u4553 05EF  
                               u4481 0507                                 u4473 04EB  
                               u3921 0FEB                                 u3841 0F95  
                               u3761 0F59                                 u3681 0EB6  
                               u3673 0EB3                                 u3585 0E43  
                               u5441 0321                                 u5425 0276  
                               u5521 0BB5                                 u5370 1780  
                               u5290 1737                                 u4730 072C  
                               u4650 06AE                                 u4570 0634  
                               u4562 0613                                 u4482 050E  
                               u3930 0FF1                                 u3850 0F9D  
                               u3770 0F5F                                 u3690 0EBB  
                               u4810 0AEB                                 u5450 0344  
                               u5530 0BC3                                 u5371 177F  
                               u5355 176F                                 u5291 1736  
                               u4731 072B                                 u4715 06F0  
                               u4651 06AD                                 u4563 061A  
                               u4491 0523                                 u4483 0515  
                               u3931 0FF0                                 u3851 0F9C  
                               u3771 0F5E                                 u3691 0EBA  
                               u4811 0AEA                                 u5451 0343  
                               u5531 0BC2                                 u4900 163A  
                               u4740 0748                                 u4660 06B3  
                               u4492 052A                                 u3940 0FFE  
                               u3860 0FA3                                 u5460 03D6  
                               u5380 005D                                 u5540 0BCB  
                               u4901 1639                                 u4741 0747  
                               u4725 070E                                 u4661 06B2  
                               u4645 069D                                 u4581 0640  
                               u4493 0531                                 u3941 0FFD  
                               u3861 0FA2                                 u4805 0ADD  
                               u5461 03D5                                 u5381 005C  
                               u5541 0BCA                                 u4910 163F  
                               u3950 158D                                 u4670 06C7  
                               u4590 065C                                 u4582 0647  
                               u3870 0FB5                                 u3790 0F75  
                               u4830 0AFB                                 u4750 0A8A  
                               u5470 03DB                                 u5390 0222  
                               u5550 0C07                                 u4911 163E  
                               u3951 158C                                 u4735 0728  
                               u4671 06C6                                 u4583 064E  
                               u4575 062F                                 u3871 0FB4  
                               u3791 0F74                                 u4831 0AFA  
                               u4751 0A89                                 u5607 0404  
                               u5471 03DA                                 u5391 0221  
                               u5551 0C06                                 u4920 164A  
                               u4680 06CE                                 u3880 0FC4  
                               u4840 0B01                                 u4760 0A8E  
                               u5560 0C0F                                 u5480 0B52  
                               u4921 1649                                 u4681 06CD  
                               u3785 0F6A                                 u4841 0B00  
                               u4825 0AF0                                 u4761 0A8D  
                               u5617 14DC                                 u5561 0C0E  
                               u5481 0B51                                 u4930 164F  
                               u3970 15A1                                 u4690 06D4  
                               u3890 0FD3                                 u4850 0B05  
                               u4770 0AAE                                 u5570 0C2F  
                               u5490 0B84                                 u5707 16BC  
                               u5627 094D                                 u4931 164E  
                               u3971 15A0                                 u4691 06D3  
                               u4595 0657                                 u3891 0FD2  
                               u4851 0B04                                 u4771 0AAD  
                               u5571 0C2E                                 u5491 0B83  
                               u4940 1657                                 u4860 0B1A  
                               u3980 0827                                 u5580 0C3C  
                               u5717 16CA                                 u5637 097C  
                               u4941 1656                                 u3965 1594  
                               u3885 0FBF                                 u3981 0826  
                               u5581 0C3B                                 u4950 165D  
                               u4870 0B2A                                 u4790 0ACB  
                               u3990 085C                                 u5727 0811  
                               u5647 09B2                                 u4951 165C  
                               u4871 0B29                                 u4791 0ACA  
                               u3991 085B                                 u4960 1666  
                               u4880 0B2E                                 u5737 081B  
                               u5657 09D1                                 u4961 1665  
                               u4881 0B2D                                 u4865 0B15  
                               u4785 0ABD                                 u4970 166B  
                               u4890 1632                                 u5667 167B  
                               u4971 166A                                 u4891 1631  
                               u4980 1673                                 u5677 168A  
                               u4981 1672                                 u5597 0111  
                               u4990 0964                                 u5687 1698  
                               u4991 0963                                 u5697 16AE  
                               _main 0B38                                 _time 0065  
                               btemp 007E                                 start 000C  
                  ___bmul@multiplier 0074                       clcd_write@byte 0075  
                     clcd_write@mode 0072                         main@delay_93 00CB  
            __end_of_power_on_screen 09D8            ??_washing_program_display 0025  
                              ??_isr 0070                        ___fltol@sign1 0076  
                    __end_of___fladd 1000                                ?_main 0070  
                    __end_of___awdiv 178A                                STR_10 1130  
                              STR_11 10B2                                STR_20 1168  
                              STR_12 10BD                                STR_21 1129  
                              STR_13 1121                                STR_30 1106  
                              STR_22 1154                                STR_14 10C8  
                              STR_31 114F                                STR_23 116C  
                              STR_15 10F2                                STR_40 10B8  
                              STR_24 1090                                STR_32 1084  
                              STR_16 110F                                STR_25 1022  
                              STR_33 109C                                STR_41 1000  
                              STR_17 10E8                                STR_34 10B8  
                              STR_42 1032                                STR_26 1011  
                              STR_18 10A7                                STR_35 113D  
                              STR_43 106A                                STR_27 105D  
                              STR_19 115E                                STR_36 1159  
                              STR_28 1137                                STR_44 1041  
                    __end_of___awmod 1725                                STR_37 113D  
                              STR_45 1163                                STR_29 114F  
                              STR_38 1159                                STR_46 1106  
                              STR_47 114F                                STR_39 1159  
                              STR_48 1084                                STR_49 109C  
                    __end_of___flmul 0759                      __end_of___flsub 157D  
                    __end_of___fltol 1800                      ___awdiv@divisor 0072  
                              i1l160 161F                         ?_init_config 0070  
                    ___awdiv@counter 0020                                _PORTB 0006  
                              _PORTD 0008                                _TRISB 0086  
                              _TRISD 0088                         ?_init_timer2 0070  
               __end_of_clear_screen 14E2                                _count 00C6  
                              _level 0069                                pclath 000A  
                              status 0003                                wtemp0 007E  
                    __initialization 000F                         __end_of_main 0C60  
                             ??_main 0079                       run_program@key 0064  
    __end_of_washing_program_display 0938                     ___awdiv@dividend 0074  
                             i1l2901 15FA                               i1l2911 1610  
                             i1l2903 1601                               i1l2913 1612  
                             i1l2905 1604                               i1l2907 1609  
                             i1l2915 161C                               i1l2909 160E  
                             i1l2897 15D9                               i1l2899 15DF  
                             u340_20 15DF                               u340_21 15DE  
                             u341_20 15FA                               u341_21 15F9  
                             u342_20 1601                               u342_21 1600  
                             u343_20 1609                               u343_21 1608  
                             u344_20 160E                               u344_21 160D  
                             _TMR2IE 0461                               _TMR2IF 0061  
                             _TMR2ON 0092                               _TRISC1 0439  
                             _TRISC2 043A                               _TRISE1 0449  
                             _TRISE2 044A                     __end_of___xxtofl 0B38  
        __end_of_init_digital_keypad 14BD                               ___flge 0759  
                             ___bmul 14E2              _init_display_controller 1677  
                          ??___fladd 0028                            ??___awdiv 0076  
                   ?_power_on_screen 0070                            ??___awmod 0076  
                          ??___flmul 0032                            ??___flsub 0076  
                          ??___fltol 0048                     ___awdiv@quotient 0022  
                    ___awmod@divisor 0072                      ___awmod@counter 0076  
                       __pdataCOMMON 0079                     __end_of_set_time 0DA8  
                             saved_w 007E                           ___flge@ff1 004C  
                         ___flge@ff2 0050                         ___xxtofl@arg 0026  
                       ___xxtofl@exp 0025                         ___xxtofl@val 0072  
            __end_of__initialization 0049  read_digital_keypad@long_press_count 007B  
                         ___fltol@f1 0044                  ___bmul@multiplicand 0072  
                     __pcstackCOMMON 0070                         __pidataBANK0 14B5  
                       __pidataBANK1 1537                         ?_run_program 0070  
                         __pbssBANK0 0065                           __pbssBANK1 00C2  
          ??_init_display_controller 0076                           _clcd_print 15A6  
                         _clcd_putch 1508                           _clcd_write 0801  
                  __end_of__Umul8_16 15A6                           __pmaintext 0B38  
                       _clear_screen 14D1                              ?___flge 004C  
                            ?___bmul 0072                           __pintentry 0004  
        __end_of_read_digital_keypad 1677                            ?___xxtofl 0072  
                         __stringtab 1170                            ?_set_time 0070  
                            ___fladd 0DA8                              ___awdiv 1725  
                            ___awmod 16CE                              ___flmul 0417  
                            ___flsub 1559                              ___fltol 178A  
                            __ptext1 09D8                              __ptext2 0899  
                            __ptext3 0C60                              __ptext4 004D  
                            __ptext5 0821                              __ptext6 14D1  
                            __ptext7 0A82                              __ptext8 178A  
                            __ptext9 1559      __end_of_init_display_controller 16CE  
                  __end_of_init_clcd 14D1               read_digital_keypad@key 0073  
                         ??___xxtofl 0020                     ___awmod@dividend 0074  
                            main@key 00CD                 end_of_initialization 0049  
                        ?_clcd_print 0020                          ?_clcd_putch 0078  
                        ?_clcd_write 0072             ?_washing_program_display 0070  
                         _reset_flag 006D                           ??_set_time 0072  
                       __pstringtext 1000                           _rinse_time 00C8  
                        ___fladd@grs 0075           washing_program_display@key 0027  
                         _program_no 006A                        ___xxtofl@sign 0024  
                      clcd_print@str 0020                          ___flmul@grs 0039  
                         _total_time 0068                       __end_of___flge 07FD  
                     __end_of___bmul 14F5                        __pidataCOMMON 07FD  
                start_initialization 000F                          __end_of_isr 1626  
              water_level_screen@key 0027                             ??___flge 0054  
                           ??___bmul 0073                           init_fetch0 14F5  
                          __Umul8_16 157D           __end_of_water_level_screen 0A82  
                        __pdataBANK0 006D                          __pdataBANK1 00A0  
         read_digital_keypad@pre_key 0079                        ??_init_config 0078  
                          ___fladd@a 0024                            ___fladd@b 0020  
                      ??_init_timer2 0072                            ___flmul@a 002E  
                          ___flmul@b 002A                          __pbssCOMMON 007B  
                          ___flsub@a 0044                            ___flsub@b 0048  
                          ___latbits 0002                        __pcstackBANK0 0020  
                      __pcstackBANK1 00C9                 power_on_screen@i_194 002A  
                           ?___fladd 0020                             ?___awdiv 0072  
                           ?___awmod 0072                             ?___flmul 002A  
                           ?___flsub 0044                             ?___fltol 0044  
                         ?__Umul8_16 0072                            __pstrings 1170  
                          _init_clcd 14C6                  __end_of_init_config 1537  
                  ??_power_on_screen 0025                  __end_of_init_timer2 14C6  
                    _washing_program 00A0             ?_init_display_controller 0070  
                  interrupt_function 0004                         ??_clcd_print 0078  
                       ??_clcd_putch 0079                         ??_clcd_write 0073  
                          _wash_time 0067                            _spin_time 0066  
                        __stringbase 1182                            main@delay 00C9  
                 __end_of_clcd_print 15D9                   __end_of_clcd_putch 151D  
                 __end_of_clcd_write 0821                           ?_init_clcd 0070  
                _init_digital_keypad 14B7                          ??__Umul8_16 0074  
               ?_init_digital_keypad 0070                   __end_of__stringtab 1182  
                        _init_config 151D                             ___xxtofl 0A82  
                   _operational_mode 006E                          _init_timer2 14BD  
                      ??_run_program 0058                             __ptext10 0DA8  
                           __ptext11 0417                             __ptext20 15A6  
                           __ptext12 157D                             __ptext21 151D  
                           __ptext13 0759                             __ptext22 14BD  
                           __ptext14 14E2                             __ptext23 14B7  
                           __ptext15 16CE                             __ptext24 14C6  
                           __ptext16 1725                             __ptext25 1677  
                           __ptext17 1626                             __ptext26 0801  
                           __ptext18 0938                             __ptext27 15D9  
                           __ptext19 1508              read_digital_keypad@mode 0072  
            read_digital_keypad@once 007A                        ?_clear_screen 0070  
                           _set_time 0C60                ??_init_digital_keypad 0072  
                  _door_status_check 0821                   ?_door_status_check 0070  
                           isr@count 00C2                  ??_door_status_check 0078  
                           init_ram0 14F9                   _water_level_screen 09D8  
                        ??_init_clcd 0078                             intlevel1 0000  
                ?_water_level_screen 0070                  __end_of_run_program 0417  
                          stringcode 117A                       ??_clear_screen 0076  
          __end_of_door_status_check 0899                  _read_digital_keypad 1626  
               ??_water_level_screen 0025              _washing_program_display 0899  
             __Umul8_16@multiplicand 0072                      _power_on_screen 0938  
                           stringtab 1170                        ___fladd@signs 0072  
               ?_read_digital_keypad 0070                     power_on_screen@i 0028  
                        _water_level 00B8                         ___fladd@aexp 0073  
                       ___fladd@bexp 0074                 __Umul8_16@multiplier 0024  
                  __Umul8_16@product 0020  
